gplink-1.4.0 #1106 (Oct  6 2014)
Copyright (c) 1998-2014 gputils project
Listing File Generated: 11-10-2022  17:40:21
 
 
Address  Value    Disassembly              Source
-------  -----    -----------              ------
                                           ;--------------------------------------------------------
                                           ; File Created by SDCC : free open source ANSI-C Compiler
                                           ; Version 3.5.0 #9253 (Jun 20 2015) (MINGW64)
                                           ; This file was generated Tue Sep 20 01:34:59 2022
                                           ;--------------------------------------------------------
                                           ; PIC port for the 14-bit core
                                           ;--------------------------------------------------------
                                           ;	.file	"dio_prg.c"
                                           	list	p=16f877a
                                           	radix dec
                                           	include "p16f877a.inc"
                                                   LIST
                                           
                                           ;==========================================================================
                                           ; Build date : Aug 07 2014
                                           ;  MPASM PIC16F877A processor include
                                           ; 
                                           ;  (c) Copyright 1999-2014 Microchip Technology, All rights reserved
                                           ;==========================================================================
                                           
                                                   NOLIST
                                           ;--------------------------------------------------------
                                           ; external declarations
                                           ;--------------------------------------------------------
                                           	extern	_STATUSbits
                                           	extern	_PORTAbits
                                           	extern	_PORTBbits
                                           	extern	_PORTCbits
                                           	extern	_PORTDbits
                                           	extern	_PORTEbits
                                           	extern	_INTCONbits
                                           	extern	_PIR1bits
                                           	extern	_PIR2bits
                                           	extern	_T1CONbits
                                           	extern	_T2CONbits
                                           	extern	_SSPCONbits
                                           	extern	_CCP1CONbits
                                           	extern	_RCSTAbits
                                           	extern	_CCP2CONbits
                                           	extern	_ADCON0bits
                                           	extern	_OPTION_REGbits
                                           	extern	_TRISAbits
                                           	extern	_TRISBbits
                                           	extern	_TRISCbits
                                           	extern	_TRISDbits
                                           	extern	_TRISEbits
                                           	extern	_PIE1bits
                                           	extern	_PIE2bits
                                           	extern	_PCONbits
                                           	extern	_SSPCON2bits
                                           	extern	_SSPSTATbits
                                           	extern	_TXSTAbits
                                           	extern	_CMCONbits
                                           	extern	_CVRCONbits
                                           	extern	_ADCON1bits
                                           	extern	_EECON1bits
                                           	extern	_INDF
                                           	extern	_TMR0
                                           	extern	_PCL
                                           	extern	_STATUS
                                           	extern	_FSR
                                           	extern	_PORTA
                                           	extern	_PORTB
                                           	extern	_PORTC
                                           	extern	_PORTD
                                           	extern	_PORTE
                                           	extern	_PCLATH
                                           	extern	_INTCON
                                           	extern	_PIR1
                                           	extern	_PIR2
                                           	extern	_TMR1
                                           	extern	_TMR1L
                                           	extern	_TMR1H
                                           	extern	_T1CON
                                           	extern	_TMR2
                                           	extern	_T2CON
                                           	extern	_SSPBUF
                                           	extern	_SSPCON
                                           	extern	_CCPR1
                                           	extern	_CCPR1L
                                           	extern	_CCPR1H
                                           	extern	_CCP1CON
                                           	extern	_RCSTA
                                           	extern	_TXREG
                                           	extern	_RCREG
                                           	extern	_CCPR2
                                           	extern	_CCPR2L
                                           	extern	_CCPR2H
                                           	extern	_CCP2CON
                                           	extern	_ADRESH
                                           	extern	_ADCON0
                                           	extern	_OPTION_REG
                                           	extern	_TRISA
                                           	extern	_TRISB
                                           	extern	_TRISC
                                           	extern	_TRISD
                                           	extern	_TRISE
                                           	extern	_PIE1
                                           	extern	_PIE2
                                           	extern	_PCON
                                           	extern	_SSPCON2
                                           	extern	_PR2
                                           	extern	_SSPADD
                                           	extern	_SSPSTAT
                                           	extern	_TXSTA
                                           	extern	_SPBRG
                                           	extern	_CMCON
                                           	extern	_CVRCON
                                           	extern	_ADRESL
                                           	extern	_ADCON1
                                           	extern	_EEDATA
                                           	extern	_EEADR
                                           	extern	_EEDATH
                                           	extern	_EEADRH
                                           	extern	_EECON1
                                           	extern	_EECON2
                                           
                                           	extern PSAVE
                                           	extern SSAVE
                                           	extern WSAVE
                                           	extern STK12
                                           	extern STK11
                                           	extern STK10
                                           	extern STK09
                                           	extern STK08
                                           	extern STK07
                                           	extern STK06
                                           	extern STK05
                                           	extern STK04
                                           	extern STK03
                                           	extern STK02
                                           	extern STK01
                                           	extern STK00
                                           ;--------------------------------------------------------
                                           ; global declarations
                                           ;--------------------------------------------------------
                                           	global	_DIO_vidWritePort
                                           	global	_DIO_vidWriteChannel
                                           	global	_DIO_u8ReadChannel
                                           
                                           ;--------------------------------------------------------
                                           ; global definitions
                                           ;--------------------------------------------------------
                                           ;--------------------------------------------------------
                                           ; absolute symbol definitions
                                           ;--------------------------------------------------------
                                           ;--------------------------------------------------------
                                           ; compiler-defined variables
                                           ;--------------------------------------------------------
                                           UDL_dio_prg_0	udata
                                           r0x1006	res	1
                                           r0x1007	res	1
                                           r0x1008	res	1
                                           r0x1002	res	1
                                           r0x1003	res	1
                                           r0x1004	res	1
                                           r0x1005	res	1
                                           r0x1000	res	1
                                           r0x1001	res	1
                                           ;--------------------------------------------------------
                                           ; initialized data
                                           ;--------------------------------------------------------
                                           ;--------------------------------------------------------
                                           ; overlayable items in internal ram 
                                           ;--------------------------------------------------------
                                           ;	udata_ovr
                                           ;--------------------------------------------------------
                                           ; code
                                           ;--------------------------------------------------------
                                           code_dio_prg	code
                                           ;***
                                           ;  pBlock Stats: dbName = C
                                           ;***
                                           ;entry:  _DIO_vidWritePort	;Function start
                                           ; 2 exit points
                                           ;has an exit
                                           ;3 compiler assigned registers:
                                           ;   r0x1000
                                           ;   STK00
                                           ;   r0x1001
                                           ;; Starting pCode block
                                           _DIO_vidWritePort	;Function start
                                           ; 2 exit points
                                           ;	.line	243; "dio_prg.c"	void DIO_vidWritePort(
00048a   1683     bsf     0x03, 0x5        	BANKSEL	r0x1000
00048b   1303     bcf     0x03, 0x6        
00048c   00db     movwf   0x5b             	MOVWF	r0x1000
00048d   087f     movf    0x7f, 0x0        	MOVF	STK00,W
00048e   00dc     movwf   0x5c             	MOVWF	r0x1001
                                           ;;swapping arguments (AOP_TYPEs 1/2)
                                           ;;unsigned compare: left >= lit(0x5=5), size=1
                                           ;	.line	248; "dio_prg.c"	switch (enuPortId)
00048f   3005     movlw   0x05             	MOVLW	0x05
000490   025b     subwf   0x5b, 0x0        	SUBWF	r0x1000,W
000491   1803     btfsc   0x03, 0x0        	BTFSC	STATUS,0
000492   2cc8     goto    0x04c8           	GOTO	_00253_DS_
                                           ;;genSkipc:3247: created from rifx:00000000047558B0
000493   3004     movlw   0x04             	MOVLW	HIGH(_00259_DS_)
000494   1283     bcf     0x03, 0x5        	BANKSEL	PCLATH
000495   1303     bcf     0x03, 0x6        
000496   008a     movwf   0x0a             	MOVWF	PCLATH
000497   30a1     movlw   0xa1             	MOVLW	_00259_DS_
000498   1683     bsf     0x03, 0x5        	BANKSEL	r0x1000
000499   1303     bcf     0x03, 0x6        
00049a   075b     addwf   0x5b, 0x0        	ADDWF	r0x1000,W
00049b   1c03     btfss   0x03, 0x0        	BTFSS	STATUS,0
00049c   2ca0     goto    0x04a0           	GOTO	_00001_DS_
00049d   1283     bcf     0x03, 0x5        	BANKSEL	PCLATH
00049e   1303     bcf     0x03, 0x6        
00049f   0a8a     incf    0x0a, 0x1        	INCF	PCLATH,F
                                           _00001_DS_
0004a0   0082     movwf   0x02             	MOVWF	PCL
                                           _00259_DS_
0004a1   2ca6     goto    0x04a6           	GOTO	_00246_DS_
0004a2   2cad     goto    0x04ad           	GOTO	_00247_DS_
0004a3   2cb4     goto    0x04b4           	GOTO	_00248_DS_
0004a4   2cbb     goto    0x04bb           	GOTO	_00249_DS_
0004a5   2cc2     goto    0x04c2           	GOTO	_00250_DS_
                                           _00246_DS_
                                           ;	.line	250; "dio_prg.c"	case DIO_PORTA: PORTA = u8Value; break;
0004a6   1683     bsf     0x03, 0x5        	BANKSEL	r0x1001
0004a7   1303     bcf     0x03, 0x6        
0004a8   085c     movf    0x5c, 0x0        	MOVF	r0x1001,W
0004a9   1283     bcf     0x03, 0x5        	BANKSEL	_PORTA
0004aa   1303     bcf     0x03, 0x6        
0004ab   0085     movwf   0x05             	MOVWF	_PORTA
0004ac   2cc8     goto    0x04c8           	GOTO	_00253_DS_
                                           _00247_DS_
                                           ;	.line	251; "dio_prg.c"	case DIO_PORTB: PORTB = u8Value; break;
0004ad   1683     bsf     0x03, 0x5        	BANKSEL	r0x1001
0004ae   1303     bcf     0x03, 0x6        
0004af   085c     movf    0x5c, 0x0        	MOVF	r0x1001,W
0004b0   1283     bcf     0x03, 0x5        	BANKSEL	_PORTB
0004b1   1303     bcf     0x03, 0x6        
0004b2   0086     movwf   0x06             	MOVWF	_PORTB
0004b3   2cc8     goto    0x04c8           	GOTO	_00253_DS_
                                           _00248_DS_
                                           ;	.line	252; "dio_prg.c"	case DIO_PORTC: PORTC = u8Value; break;
0004b4   1683     bsf     0x03, 0x5        	BANKSEL	r0x1001
0004b5   1303     bcf     0x03, 0x6        
0004b6   085c     movf    0x5c, 0x0        	MOVF	r0x1001,W
0004b7   1283     bcf     0x03, 0x5        	BANKSEL	_PORTC
0004b8   1303     bcf     0x03, 0x6        
0004b9   0087     movwf   0x07             	MOVWF	_PORTC
0004ba   2cc8     goto    0x04c8           	GOTO	_00253_DS_
                                           _00249_DS_
                                           ;	.line	253; "dio_prg.c"	case DIO_PORTD: PORTD = u8Value; break;
0004bb   1683     bsf     0x03, 0x5        	BANKSEL	r0x1001
0004bc   1303     bcf     0x03, 0x6        
0004bd   085c     movf    0x5c, 0x0        	MOVF	r0x1001,W
0004be   1283     bcf     0x03, 0x5        	BANKSEL	_PORTD
0004bf   1303     bcf     0x03, 0x6        
0004c0   0088     movwf   0x08             	MOVWF	_PORTD
0004c1   2cc8     goto    0x04c8           	GOTO	_00253_DS_
                                           _00250_DS_
                                           ;	.line	254; "dio_prg.c"	case DIO_PORTE: PORTE = u8Value; break;
0004c2   1683     bsf     0x03, 0x5        	BANKSEL	r0x1001
0004c3   1303     bcf     0x03, 0x6        
0004c4   085c     movf    0x5c, 0x0        	MOVF	r0x1001,W
0004c5   1283     bcf     0x03, 0x5        	BANKSEL	_PORTE
0004c6   1303     bcf     0x03, 0x6        
0004c7   0089     movwf   0x09             	MOVWF	_PORTE
                                           _00253_DS_
                                           ;	.line	256; "dio_prg.c"	}
0004c8   0008     return                   	RETURN	
                                           ; exit point of _DIO_vidWritePort
                                           
                                           ;***
                                           ;  pBlock Stats: dbName = C
                                           ;***
                                           ;entry:  _DIO_vidWriteChannel	;Function start
                                           ; 2 exit points
                                           ;has an exit
                                           ;5 compiler assigned registers:
                                           ;   r0x1002
                                           ;   STK00
                                           ;   r0x1003
                                           ;   r0x1004
                                           ;   r0x1005
                                           ;; Starting pCode block
                                           _DIO_vidWriteChannel	;Function start
                                           ; 2 exit points
                                           ;	.line	144; "dio_prg.c"	void DIO_vidWriteChannel(
0004c9   1683     bsf     0x03, 0x5        	BANKSEL	r0x1002
0004ca   1303     bcf     0x03, 0x6        
0004cb   00d7     movwf   0x57             	MOVWF	r0x1002
0004cc   087f     movf    0x7f, 0x0        	MOVF	STK00,W
0004cd   00d8     movwf   0x58             	MOVWF	r0x1003
                                           ;;unsigned compare: left < lit(0x21=33), size=1
                                           ;	.line	153; "dio_prg.c"	if(enuChannelId < DIO_CHANNEL_NUMBER)
0004ce   3021     movlw   0x21             	MOVLW	0x21
0004cf   0257     subwf   0x57, 0x0        	SUBWF	r0x1002,W
0004d0   1803     btfsc   0x03, 0x0        	BTFSC	STATUS,0
0004d1   2dcc     goto    0x05cc           	GOTO	_00185_DS_
                                           ;;genSkipc:3247: created from rifx:00000000047558B0
                                           ;;unsigned compare: left < lit(0x6=6), size=1
                                           ;	.line	156; "dio_prg.c"	if(enuChannelId < DIO_PORTB_CHANNEL_0)
0004d2   3006     movlw   0x06             	MOVLW	0x06
0004d3   0257     subwf   0x57, 0x0        	SUBWF	r0x1002,W
0004d4   1803     btfsc   0x03, 0x0        	BTFSC	STATUS,0
0004d5   2d01     goto    0x0501           	GOTO	_00181_DS_
                                           ;;genSkipc:3247: created from rifx:00000000047558B0
                                           ;	.line	159; "dio_prg.c"	if (enuLevel == DIO_LEVEL_LOW)
0004d6   0858     movf    0x58, 0x0        	MOVF	r0x1003,W
0004d7   1d03     btfss   0x03, 0x2        	BTFSS	STATUS,2
0004d8   2cec     goto    0x04ec           	GOTO	_00157_DS_
                                           ;	.line	161; "dio_prg.c"	PORTA = PORTA & ~(1 << u8PinNumber);
0004d9   3001     movlw   0x01             	MOVLW	0x01
0004da   00d9     movwf   0x59             	MOVWF	r0x1004
0004db   0857     movf    0x57, 0x0        	MOVF	r0x1002,W
0004dc   3c00     sublw   0x00             	SUBLW	0x00
0004dd   1903     btfsc   0x03, 0x2        	BTFSC	STATUS,2
0004de   2ce5     goto    0x04e5           	GOTO	_00220_DS_
                                           _00219_DS_
0004df   1683     bsf     0x03, 0x5        	BANKSEL	r0x1004
0004e0   1303     bcf     0x03, 0x6        
0004e1   0dd9     rlf     0x59, 0x1        	RLF	r0x1004,F
0004e2   3e01     addlw   0x01             	ADDLW	0x01
0004e3   1c03     btfss   0x03, 0x0        	BTFSS	STATUS,0
0004e4   2cdf     goto    0x04df           	GOTO	_00219_DS_
                                           _00220_DS_
0004e5   1683     bsf     0x03, 0x5        	BANKSEL	r0x1004
0004e6   1303     bcf     0x03, 0x6        
0004e7   09d9     comf    0x59, 0x1        	COMF	r0x1004,F
0004e8   1283     bcf     0x03, 0x5        	BANKSEL	_PORTA
0004e9   1303     bcf     0x03, 0x6        
0004ea   0585     andwf   0x05, 0x1        	ANDWF	_PORTA,F
0004eb   2dcc     goto    0x05cc           	GOTO	_00185_DS_
                                           _00157_DS_
                                           ;	.line	165; "dio_prg.c"	PORTA = PORTA | (1 << u8PinNumber);
0004ec   3001     movlw   0x01             	MOVLW	0x01
0004ed   1683     bsf     0x03, 0x5        	BANKSEL	r0x1004
0004ee   1303     bcf     0x03, 0x6        
0004ef   00d9     movwf   0x59             	MOVWF	r0x1004
0004f0   0857     movf    0x57, 0x0        	MOVF	r0x1002,W
0004f1   3c00     sublw   0x00             	SUBLW	0x00
0004f2   1903     btfsc   0x03, 0x2        	BTFSC	STATUS,2
0004f3   2cfa     goto    0x04fa           	GOTO	_00222_DS_
                                           _00221_DS_
0004f4   1683     bsf     0x03, 0x5        	BANKSEL	r0x1004
0004f5   1303     bcf     0x03, 0x6        
0004f6   0dd9     rlf     0x59, 0x1        	RLF	r0x1004,F
0004f7   3e01     addlw   0x01             	ADDLW	0x01
0004f8   1c03     btfss   0x03, 0x0        	BTFSS	STATUS,0
0004f9   2cf4     goto    0x04f4           	GOTO	_00221_DS_
                                           _00222_DS_
0004fa   1683     bsf     0x03, 0x5        	BANKSEL	r0x1004
0004fb   1303     bcf     0x03, 0x6        
0004fc   0859     movf    0x59, 0x0        	MOVF	r0x1004,W
0004fd   1283     bcf     0x03, 0x5        	BANKSEL	_PORTA
0004fe   1303     bcf     0x03, 0x6        
0004ff   0485     iorwf   0x05, 0x1        	IORWF	_PORTA,F
000500   2dcc     goto    0x05cc           	GOTO	_00185_DS_
                                           ;;unsigned compare: left < lit(0xE=14), size=1
                                           _00181_DS_
                                           ;	.line	170; "dio_prg.c"	else if (enuChannelId < DIO_PORTC_CHANNEL_0 )
000501   300e     movlw   0x0e             	MOVLW	0x0e
000502   1683     bsf     0x03, 0x5        	BANKSEL	r0x1002
000503   1303     bcf     0x03, 0x6        
000504   0257     subwf   0x57, 0x0        	SUBWF	r0x1002,W
000505   1803     btfsc   0x03, 0x0        	BTFSC	STATUS,0
000506   2d35     goto    0x0535           	GOTO	_00178_DS_
                                           ;;genSkipc:3247: created from rifx:00000000047558B0
                                           ;	.line	172; "dio_prg.c"	u8PinNumber = enuChannelId - 6 /* Number of PortA channels */;
000507   30fa     movlw   0xfa             	MOVLW	0xfa
000508   0757     addwf   0x57, 0x0        	ADDWF	r0x1002,W
000509   00d9     movwf   0x59             	MOVWF	r0x1004
                                           ;	.line	173; "dio_prg.c"	if (enuLevel == DIO_LEVEL_LOW)
00050a   0858     movf    0x58, 0x0        	MOVF	r0x1003,W
00050b   1d03     btfss   0x03, 0x2        	BTFSS	STATUS,2
00050c   2d20     goto    0x0520           	GOTO	_00160_DS_
                                           ;	.line	175; "dio_prg.c"	PORTB = PORTB & ~(1 << u8PinNumber);
00050d   3001     movlw   0x01             	MOVLW	0x01
00050e   00da     movwf   0x5a             	MOVWF	r0x1005
00050f   0859     movf    0x59, 0x0        	MOVF	r0x1004,W
000510   3c00     sublw   0x00             	SUBLW	0x00
000511   1903     btfsc   0x03, 0x2        	BTFSC	STATUS,2
000512   2d19     goto    0x0519           	GOTO	_00225_DS_
                                           _00224_DS_
000513   1683     bsf     0x03, 0x5        	BANKSEL	r0x1005
000514   1303     bcf     0x03, 0x6        
000515   0dda     rlf     0x5a, 0x1        	RLF	r0x1005,F
000516   3e01     addlw   0x01             	ADDLW	0x01
000517   1c03     btfss   0x03, 0x0        	BTFSS	STATUS,0
000518   2d13     goto    0x0513           	GOTO	_00224_DS_
                                           _00225_DS_
000519   1683     bsf     0x03, 0x5        	BANKSEL	r0x1005
00051a   1303     bcf     0x03, 0x6        
00051b   09da     comf    0x5a, 0x1        	COMF	r0x1005,F
00051c   1283     bcf     0x03, 0x5        	BANKSEL	_PORTB
00051d   1303     bcf     0x03, 0x6        
00051e   0586     andwf   0x06, 0x1        	ANDWF	_PORTB,F
00051f   2dcc     goto    0x05cc           	GOTO	_00185_DS_
                                           _00160_DS_
                                           ;	.line	179; "dio_prg.c"	PORTB = PORTB | (1 << u8PinNumber);
000520   3001     movlw   0x01             	MOVLW	0x01
000521   1683     bsf     0x03, 0x5        	BANKSEL	r0x1005
000522   1303     bcf     0x03, 0x6        
000523   00da     movwf   0x5a             	MOVWF	r0x1005
000524   0859     movf    0x59, 0x0        	MOVF	r0x1004,W
000525   3c00     sublw   0x00             	SUBLW	0x00
000526   1903     btfsc   0x03, 0x2        	BTFSC	STATUS,2
000527   2d2e     goto    0x052e           	GOTO	_00227_DS_
                                           _00226_DS_
000528   1683     bsf     0x03, 0x5        	BANKSEL	r0x1005
000529   1303     bcf     0x03, 0x6        
00052a   0dda     rlf     0x5a, 0x1        	RLF	r0x1005,F
00052b   3e01     addlw   0x01             	ADDLW	0x01
00052c   1c03     btfss   0x03, 0x0        	BTFSS	STATUS,0
00052d   2d28     goto    0x0528           	GOTO	_00226_DS_
                                           _00227_DS_
00052e   1683     bsf     0x03, 0x5        	BANKSEL	r0x1005
00052f   1303     bcf     0x03, 0x6        
000530   085a     movf    0x5a, 0x0        	MOVF	r0x1005,W
000531   1283     bcf     0x03, 0x5        	BANKSEL	_PORTB
000532   1303     bcf     0x03, 0x6        
000533   0486     iorwf   0x06, 0x1        	IORWF	_PORTB,F
000534   2dcc     goto    0x05cc           	GOTO	_00185_DS_
                                           ;;unsigned compare: left < lit(0x16=22), size=1
                                           _00178_DS_
                                           ;	.line	184; "dio_prg.c"	else if (enuChannelId < DIO_PORTD_CHANNEL_0 )
000535   3016     movlw   0x16             	MOVLW	0x16
000536   1683     bsf     0x03, 0x5        	BANKSEL	r0x1002
000537   1303     bcf     0x03, 0x6        
000538   0257     subwf   0x57, 0x0        	SUBWF	r0x1002,W
000539   1803     btfsc   0x03, 0x0        	BTFSC	STATUS,0
00053a   2d69     goto    0x0569           	GOTO	_00175_DS_
                                           ;;genSkipc:3247: created from rifx:00000000047558B0
                                           ;	.line	186; "dio_prg.c"	u8PinNumber = enuChannelId - 14 /* Number of Port A&B channels */;
00053b   30f2     movlw   0xf2             	MOVLW	0xf2
00053c   0757     addwf   0x57, 0x0        	ADDWF	r0x1002,W
00053d   00d9     movwf   0x59             	MOVWF	r0x1004
                                           ;	.line	187; "dio_prg.c"	if (enuLevel == DIO_LEVEL_LOW)
00053e   0858     movf    0x58, 0x0        	MOVF	r0x1003,W
00053f   1d03     btfss   0x03, 0x2        	BTFSS	STATUS,2
000540   2d54     goto    0x0554           	GOTO	_00163_DS_
                                           ;	.line	189; "dio_prg.c"	PORTC = PORTC & ~(1 << u8PinNumber);
000541   3001     movlw   0x01             	MOVLW	0x01
000542   00da     movwf   0x5a             	MOVWF	r0x1005
000543   0859     movf    0x59, 0x0        	MOVF	r0x1004,W
000544   3c00     sublw   0x00             	SUBLW	0x00
000545   1903     btfsc   0x03, 0x2        	BTFSC	STATUS,2
000546   2d4d     goto    0x054d           	GOTO	_00230_DS_
                                           _00229_DS_
000547   1683     bsf     0x03, 0x5        	BANKSEL	r0x1005
000548   1303     bcf     0x03, 0x6        
000549   0dda     rlf     0x5a, 0x1        	RLF	r0x1005,F
00054a   3e01     addlw   0x01             	ADDLW	0x01
00054b   1c03     btfss   0x03, 0x0        	BTFSS	STATUS,0
00054c   2d47     goto    0x0547           	GOTO	_00229_DS_
                                           _00230_DS_
00054d   1683     bsf     0x03, 0x5        	BANKSEL	r0x1005
00054e   1303     bcf     0x03, 0x6        
00054f   09da     comf    0x5a, 0x1        	COMF	r0x1005,F
000550   1283     bcf     0x03, 0x5        	BANKSEL	_PORTC
000551   1303     bcf     0x03, 0x6        
000552   0587     andwf   0x07, 0x1        	ANDWF	_PORTC,F
000553   2dcc     goto    0x05cc           	GOTO	_00185_DS_
                                           _00163_DS_
                                           ;	.line	193; "dio_prg.c"	PORTC = PORTC | (1 << u8PinNumber);
000554   3001     movlw   0x01             	MOVLW	0x01
000555   1683     bsf     0x03, 0x5        	BANKSEL	r0x1005
000556   1303     bcf     0x03, 0x6        
000557   00da     movwf   0x5a             	MOVWF	r0x1005
000558   0859     movf    0x59, 0x0        	MOVF	r0x1004,W
000559   3c00     sublw   0x00             	SUBLW	0x00
00055a   1903     btfsc   0x03, 0x2        	BTFSC	STATUS,2
00055b   2d62     goto    0x0562           	GOTO	_00232_DS_
                                           _00231_DS_
00055c   1683     bsf     0x03, 0x5        	BANKSEL	r0x1005
00055d   1303     bcf     0x03, 0x6        
00055e   0dda     rlf     0x5a, 0x1        	RLF	r0x1005,F
00055f   3e01     addlw   0x01             	ADDLW	0x01
000560   1c03     btfss   0x03, 0x0        	BTFSS	STATUS,0
000561   2d5c     goto    0x055c           	GOTO	_00231_DS_
                                           _00232_DS_
000562   1683     bsf     0x03, 0x5        	BANKSEL	r0x1005
000563   1303     bcf     0x03, 0x6        
000564   085a     movf    0x5a, 0x0        	MOVF	r0x1005,W
000565   1283     bcf     0x03, 0x5        	BANKSEL	_PORTC
000566   1303     bcf     0x03, 0x6        
000567   0487     iorwf   0x07, 0x1        	IORWF	_PORTC,F
000568   2dcc     goto    0x05cc           	GOTO	_00185_DS_
                                           ;;unsigned compare: left < lit(0x1E=30), size=1
                                           _00175_DS_
                                           ;	.line	198; "dio_prg.c"	else if (enuChannelId < DIO_PORTE_CHANNEL_0 )
000569   301e     movlw   0x1e             	MOVLW	0x1e
00056a   1683     bsf     0x03, 0x5        	BANKSEL	r0x1002
00056b   1303     bcf     0x03, 0x6        
00056c   0257     subwf   0x57, 0x0        	SUBWF	r0x1002,W
00056d   1803     btfsc   0x03, 0x0        	BTFSC	STATUS,0
00056e   2d9d     goto    0x059d           	GOTO	_00172_DS_
                                           ;;genSkipc:3247: created from rifx:00000000047558B0
                                           ;	.line	200; "dio_prg.c"	u8PinNumber = enuChannelId - 22;
00056f   30ea     movlw   0xea             	MOVLW	0xea
000570   0757     addwf   0x57, 0x0        	ADDWF	r0x1002,W
000571   00d9     movwf   0x59             	MOVWF	r0x1004
                                           ;	.line	201; "dio_prg.c"	if (enuLevel == DIO_LEVEL_LOW)
000572   0858     movf    0x58, 0x0        	MOVF	r0x1003,W
000573   1d03     btfss   0x03, 0x2        	BTFSS	STATUS,2
000574   2d88     goto    0x0588           	GOTO	_00166_DS_
                                           ;	.line	203; "dio_prg.c"	PORTD = PORTD & ~(1 << u8PinNumber);
000575   3001     movlw   0x01             	MOVLW	0x01
000576   00da     movwf   0x5a             	MOVWF	r0x1005
000577   0859     movf    0x59, 0x0        	MOVF	r0x1004,W
000578   3c00     sublw   0x00             	SUBLW	0x00
000579   1903     btfsc   0x03, 0x2        	BTFSC	STATUS,2
00057a   2d81     goto    0x0581           	GOTO	_00235_DS_
                                           _00234_DS_
00057b   1683     bsf     0x03, 0x5        	BANKSEL	r0x1005
00057c   1303     bcf     0x03, 0x6        
00057d   0dda     rlf     0x5a, 0x1        	RLF	r0x1005,F
00057e   3e01     addlw   0x01             	ADDLW	0x01
00057f   1c03     btfss   0x03, 0x0        	BTFSS	STATUS,0
000580   2d7b     goto    0x057b           	GOTO	_00234_DS_
                                           _00235_DS_
000581   1683     bsf     0x03, 0x5        	BANKSEL	r0x1005
000582   1303     bcf     0x03, 0x6        
000583   09da     comf    0x5a, 0x1        	COMF	r0x1005,F
000584   1283     bcf     0x03, 0x5        	BANKSEL	_PORTD
000585   1303     bcf     0x03, 0x6        
000586   0588     andwf   0x08, 0x1        	ANDWF	_PORTD,F
000587   2dcc     goto    0x05cc           	GOTO	_00185_DS_
                                           _00166_DS_
                                           ;	.line	207; "dio_prg.c"	PORTD = PORTD | (1 << u8PinNumber);
000588   3001     movlw   0x01             	MOVLW	0x01
000589   1683     bsf     0x03, 0x5        	BANKSEL	r0x1005
00058a   1303     bcf     0x03, 0x6        
00058b   00da     movwf   0x5a             	MOVWF	r0x1005
00058c   0859     movf    0x59, 0x0        	MOVF	r0x1004,W
00058d   3c00     sublw   0x00             	SUBLW	0x00
00058e   1903     btfsc   0x03, 0x2        	BTFSC	STATUS,2
00058f   2d96     goto    0x0596           	GOTO	_00237_DS_
                                           _00236_DS_
000590   1683     bsf     0x03, 0x5        	BANKSEL	r0x1005
000591   1303     bcf     0x03, 0x6        
000592   0dda     rlf     0x5a, 0x1        	RLF	r0x1005,F
000593   3e01     addlw   0x01             	ADDLW	0x01
000594   1c03     btfss   0x03, 0x0        	BTFSS	STATUS,0
000595   2d90     goto    0x0590           	GOTO	_00236_DS_
                                           _00237_DS_
000596   1683     bsf     0x03, 0x5        	BANKSEL	r0x1005
000597   1303     bcf     0x03, 0x6        
000598   085a     movf    0x5a, 0x0        	MOVF	r0x1005,W
000599   1283     bcf     0x03, 0x5        	BANKSEL	_PORTD
00059a   1303     bcf     0x03, 0x6        
00059b   0488     iorwf   0x08, 0x1        	IORWF	_PORTD,F
00059c   2dcc     goto    0x05cc           	GOTO	_00185_DS_
                                           _00172_DS_
                                           ;	.line	213; "dio_prg.c"	u8PinNumber = enuChannelId - 30;
00059d   30e2     movlw   0xe2             	MOVLW	0xe2
00059e   1683     bsf     0x03, 0x5        	BANKSEL	r0x1002
00059f   1303     bcf     0x03, 0x6        
0005a0   0757     addwf   0x57, 0x0        	ADDWF	r0x1002,W
0005a1   00d9     movwf   0x59             	MOVWF	r0x1004
                                           ;	.line	214; "dio_prg.c"	if (enuLevel == DIO_LEVEL_LOW)
0005a2   0858     movf    0x58, 0x0        	MOVF	r0x1003,W
0005a3   1d03     btfss   0x03, 0x2        	BTFSS	STATUS,2
0005a4   2db8     goto    0x05b8           	GOTO	_00169_DS_
                                           ;	.line	216; "dio_prg.c"	PORTE = PORTE & ~(1 << u8PinNumber);
0005a5   3001     movlw   0x01             	MOVLW	0x01
0005a6   00d7     movwf   0x57             	MOVWF	r0x1002
0005a7   0859     movf    0x59, 0x0        	MOVF	r0x1004,W
0005a8   3c00     sublw   0x00             	SUBLW	0x00
0005a9   1903     btfsc   0x03, 0x2        	BTFSC	STATUS,2
0005aa   2db1     goto    0x05b1           	GOTO	_00239_DS_
                                           _00238_DS_
0005ab   1683     bsf     0x03, 0x5        	BANKSEL	r0x1002
0005ac   1303     bcf     0x03, 0x6        
0005ad   0dd7     rlf     0x57, 0x1        	RLF	r0x1002,F
0005ae   3e01     addlw   0x01             	ADDLW	0x01
0005af   1c03     btfss   0x03, 0x0        	BTFSS	STATUS,0
0005b0   2dab     goto    0x05ab           	GOTO	_00238_DS_
                                           _00239_DS_
0005b1   1683     bsf     0x03, 0x5        	BANKSEL	r0x1002
0005b2   1303     bcf     0x03, 0x6        
0005b3   09d7     comf    0x57, 0x1        	COMF	r0x1002,F
0005b4   1283     bcf     0x03, 0x5        	BANKSEL	_PORTE
0005b5   1303     bcf     0x03, 0x6        
0005b6   0589     andwf   0x09, 0x1        	ANDWF	_PORTE,F
0005b7   2dcc     goto    0x05cc           	GOTO	_00185_DS_
                                           _00169_DS_
                                           ;	.line	220; "dio_prg.c"	PORTE = PORTE | (1 << u8PinNumber);
0005b8   3001     movlw   0x01             	MOVLW	0x01
0005b9   1683     bsf     0x03, 0x5        	BANKSEL	r0x1002
0005ba   1303     bcf     0x03, 0x6        
0005bb   00d7     movwf   0x57             	MOVWF	r0x1002
0005bc   0859     movf    0x59, 0x0        	MOVF	r0x1004,W
0005bd   3c00     sublw   0x00             	SUBLW	0x00
0005be   1903     btfsc   0x03, 0x2        	BTFSC	STATUS,2
0005bf   2dc6     goto    0x05c6           	GOTO	_00241_DS_
                                           _00240_DS_
0005c0   1683     bsf     0x03, 0x5        	BANKSEL	r0x1002
0005c1   1303     bcf     0x03, 0x6        
0005c2   0dd7     rlf     0x57, 0x1        	RLF	r0x1002,F
0005c3   3e01     addlw   0x01             	ADDLW	0x01
0005c4   1c03     btfss   0x03, 0x0        	BTFSS	STATUS,0
0005c5   2dc0     goto    0x05c0           	GOTO	_00240_DS_
                                           _00241_DS_
0005c6   1683     bsf     0x03, 0x5        	BANKSEL	r0x1002
0005c7   1303     bcf     0x03, 0x6        
0005c8   0857     movf    0x57, 0x0        	MOVF	r0x1002,W
0005c9   1283     bcf     0x03, 0x5        	BANKSEL	_PORTE
0005ca   1303     bcf     0x03, 0x6        
0005cb   0489     iorwf   0x09, 0x1        	IORWF	_PORTE,F
                                           _00185_DS_
0005cc   0008     return                   	RETURN	
                                           ; exit point of _DIO_vidWriteChannel
                                           
                                           ;***
                                           ;  pBlock Stats: dbName = C
                                           ;***
                                           ;entry:  _DIO_u8ReadChannel	;Function start
                                           ; 2 exit points
                                           ;has an exit
                                           ;3 compiler assigned registers:
                                           ;   r0x1006
                                           ;   r0x1007
                                           ;   r0x1008
                                           ;; Starting pCode block
                                           _DIO_u8ReadChannel	;Function start
                                           ; 2 exit points
                                           ;	.line	72; "dio_prg.c"	uint8 DIO_u8ReadChannel(DIO_tenuChannelId enuChannelId)
0005cd   1683     bsf     0x03, 0x5        	BANKSEL	r0x1006
0005ce   1303     bcf     0x03, 0x6        
0005cf   00d4     movwf   0x54             	MOVWF	r0x1006
                                           ;;unsigned compare: left < lit(0x21=33), size=1
                                           ;	.line	83; "dio_prg.c"	if(enuChannelId < DIO_CHANNEL_NUMBER)
0005d0   3021     movlw   0x21             	MOVLW	0x21
0005d1   0254     subwf   0x54, 0x0        	SUBWF	r0x1006,W
0005d2   1803     btfsc   0x03, 0x0        	BTFSC	STATUS,0
0005d3   2e51     goto    0x0651           	GOTO	_00118_DS_
                                           ;;genSkipc:3247: created from rifx:00000000047558B0
                                           ;;unsigned compare: left < lit(0x6=6), size=1
                                           ;	.line	86; "dio_prg.c"	if(enuChannelId < DIO_PORTB_CHANNEL_0)
0005d4   3006     movlw   0x06             	MOVLW	0x06
0005d5   0254     subwf   0x54, 0x0        	SUBWF	r0x1006,W
0005d6   1803     btfsc   0x03, 0x0        	BTFSC	STATUS,0
0005d7   2de9     goto    0x05e9           	GOTO	_00115_DS_
                                           ;;genSkipc:3247: created from rifx:00000000047558B0
                                           ;	.line	89; "dio_prg.c"	u8Return = PORTA >> u8PinNumber ;
0005d8   1283     bcf     0x03, 0x5        	BANKSEL	_PORTA
0005d9   1303     bcf     0x03, 0x6        
0005da   0805     movf    0x05, 0x0        	MOVF	_PORTA,W
0005db   1683     bsf     0x03, 0x5        	BANKSEL	r0x1007
0005dc   1303     bcf     0x03, 0x6        
0005dd   00d5     movwf   0x55             	MOVWF	r0x1007
0005de   0854     movf    0x54, 0x0        	MOVF	r0x1006,W
0005df   3c00     sublw   0x00             	SUBLW	0x00
0005e0   1903     btfsc   0x03, 0x2        	BTFSC	STATUS,2
0005e1   2de8     goto    0x05e8           	GOTO	_00140_DS_
                                           _00139_DS_
0005e2   1683     bsf     0x03, 0x5        	BANKSEL	r0x1007
0005e3   1303     bcf     0x03, 0x6        
0005e4   0cd5     rrf     0x55, 0x1        	RRF	r0x1007,F
0005e5   3e01     addlw   0x01             	ADDLW	0x01
0005e6   1c03     btfss   0x03, 0x0        	BTFSS	STATUS,0
0005e7   2de2     goto    0x05e2           	GOTO	_00139_DS_
                                           _00140_DS_
0005e8   2e4c     goto    0x064c           	GOTO	_00116_DS_
                                           ;;unsigned compare: left < lit(0xE=14), size=1
                                           _00115_DS_
                                           ;	.line	93; "dio_prg.c"	else if (enuChannelId < DIO_PORTC_CHANNEL_0 )
0005e9   300e     movlw   0x0e             	MOVLW	0x0e
0005ea   1683     bsf     0x03, 0x5        	BANKSEL	r0x1006
0005eb   1303     bcf     0x03, 0x6        
0005ec   0254     subwf   0x54, 0x0        	SUBWF	r0x1006,W
0005ed   1803     btfsc   0x03, 0x0        	BTFSC	STATUS,0
0005ee   2e03     goto    0x0603           	GOTO	_00112_DS_
                                           ;;genSkipc:3247: created from rifx:00000000047558B0
                                           ;	.line	95; "dio_prg.c"	u8PinNumber = enuChannelId - 6 /* Number of PortA channels */;
0005ef   30fa     movlw   0xfa             	MOVLW	0xfa
0005f0   0754     addwf   0x54, 0x0        	ADDWF	r0x1006,W
0005f1   00d6     movwf   0x56             	MOVWF	r0x1008
                                           ;	.line	96; "dio_prg.c"	u8Return = PORTB >> u8PinNumber ;
0005f2   1283     bcf     0x03, 0x5        	BANKSEL	_PORTB
0005f3   1303     bcf     0x03, 0x6        
0005f4   0806     movf    0x06, 0x0        	MOVF	_PORTB,W
0005f5   1683     bsf     0x03, 0x5        	BANKSEL	r0x1007
0005f6   1303     bcf     0x03, 0x6        
0005f7   00d5     movwf   0x55             	MOVWF	r0x1007
0005f8   0856     movf    0x56, 0x0        	MOVF	r0x1008,W
0005f9   3c00     sublw   0x00             	SUBLW	0x00
0005fa   1903     btfsc   0x03, 0x2        	BTFSC	STATUS,2
0005fb   2e02     goto    0x0602           	GOTO	_00143_DS_
                                           _00142_DS_
0005fc   1683     bsf     0x03, 0x5        	BANKSEL	r0x1007
0005fd   1303     bcf     0x03, 0x6        
0005fe   0cd5     rrf     0x55, 0x1        	RRF	r0x1007,F
0005ff   3e01     addlw   0x01             	ADDLW	0x01
000600   1c03     btfss   0x03, 0x0        	BTFSS	STATUS,0
000601   2dfc     goto    0x05fc           	GOTO	_00142_DS_
                                           _00143_DS_
000602   2e4c     goto    0x064c           	GOTO	_00116_DS_
                                           ;;unsigned compare: left < lit(0x16=22), size=1
                                           _00112_DS_
                                           ;	.line	100; "dio_prg.c"	else if (enuChannelId < DIO_PORTD_CHANNEL_0 )
000603   3016     movlw   0x16             	MOVLW	0x16
000604   1683     bsf     0x03, 0x5        	BANKSEL	r0x1006
000605   1303     bcf     0x03, 0x6        
000606   0254     subwf   0x54, 0x0        	SUBWF	r0x1006,W
000607   1803     btfsc   0x03, 0x0        	BTFSC	STATUS,0
000608   2e1d     goto    0x061d           	GOTO	_00109_DS_
                                           ;;genSkipc:3247: created from rifx:00000000047558B0
                                           ;	.line	102; "dio_prg.c"	u8PinNumber = enuChannelId - 14 /* Number of Port A&B channels */;
000609   30f2     movlw   0xf2             	MOVLW	0xf2
00060a   0754     addwf   0x54, 0x0        	ADDWF	r0x1006,W
00060b   00d6     movwf   0x56             	MOVWF	r0x1008
                                           ;	.line	103; "dio_prg.c"	u8Return = PORTC >> u8PinNumber ;
00060c   1283     bcf     0x03, 0x5        	BANKSEL	_PORTC
00060d   1303     bcf     0x03, 0x6        
00060e   0807     movf    0x07, 0x0        	MOVF	_PORTC,W
00060f   1683     bsf     0x03, 0x5        	BANKSEL	r0x1007
000610   1303     bcf     0x03, 0x6        
000611   00d5     movwf   0x55             	MOVWF	r0x1007
000612   0856     movf    0x56, 0x0        	MOVF	r0x1008,W
000613   3c00     sublw   0x00             	SUBLW	0x00
000614   1903     btfsc   0x03, 0x2        	BTFSC	STATUS,2
000615   2e1c     goto    0x061c           	GOTO	_00146_DS_
                                           _00145_DS_
000616   1683     bsf     0x03, 0x5        	BANKSEL	r0x1007
000617   1303     bcf     0x03, 0x6        
000618   0cd5     rrf     0x55, 0x1        	RRF	r0x1007,F
000619   3e01     addlw   0x01             	ADDLW	0x01
00061a   1c03     btfss   0x03, 0x0        	BTFSS	STATUS,0
00061b   2e16     goto    0x0616           	GOTO	_00145_DS_
                                           _00146_DS_
00061c   2e4c     goto    0x064c           	GOTO	_00116_DS_
                                           ;;unsigned compare: left < lit(0x1E=30), size=1
                                           _00109_DS_
                                           ;	.line	107; "dio_prg.c"	else if (enuChannelId < DIO_PORTE_CHANNEL_0 )
00061d   301e     movlw   0x1e             	MOVLW	0x1e
00061e   1683     bsf     0x03, 0x5        	BANKSEL	r0x1006
00061f   1303     bcf     0x03, 0x6        
000620   0254     subwf   0x54, 0x0        	SUBWF	r0x1006,W
000621   1803     btfsc   0x03, 0x0        	BTFSC	STATUS,0
000622   2e37     goto    0x0637           	GOTO	_00106_DS_
                                           ;;genSkipc:3247: created from rifx:00000000047558B0
                                           ;	.line	109; "dio_prg.c"	u8PinNumber = enuChannelId - 22;
000623   30ea     movlw   0xea             	MOVLW	0xea
000624   0754     addwf   0x54, 0x0        	ADDWF	r0x1006,W
000625   00d6     movwf   0x56             	MOVWF	r0x1008
                                           ;	.line	110; "dio_prg.c"	u8Return = PORTD >> u8PinNumber ;
000626   1283     bcf     0x03, 0x5        	BANKSEL	_PORTD
000627   1303     bcf     0x03, 0x6        
000628   0808     movf    0x08, 0x0        	MOVF	_PORTD,W
000629   1683     bsf     0x03, 0x5        	BANKSEL	r0x1007
00062a   1303     bcf     0x03, 0x6        
00062b   00d5     movwf   0x55             	MOVWF	r0x1007
00062c   0856     movf    0x56, 0x0        	MOVF	r0x1008,W
00062d   3c00     sublw   0x00             	SUBLW	0x00
00062e   1903     btfsc   0x03, 0x2        	BTFSC	STATUS,2
00062f   2e36     goto    0x0636           	GOTO	_00149_DS_
                                           _00148_DS_
000630   1683     bsf     0x03, 0x5        	BANKSEL	r0x1007
000631   1303     bcf     0x03, 0x6        
000632   0cd5     rrf     0x55, 0x1        	RRF	r0x1007,F
000633   3e01     addlw   0x01             	ADDLW	0x01
000634   1c03     btfss   0x03, 0x0        	BTFSS	STATUS,0
000635   2e30     goto    0x0630           	GOTO	_00148_DS_
                                           _00149_DS_
000636   2e4c     goto    0x064c           	GOTO	_00116_DS_
                                           _00106_DS_
                                           ;	.line	115; "dio_prg.c"	u8PinNumber = enuChannelId - 30;
000637   30e2     movlw   0xe2             	MOVLW	0xe2
000638   1683     bsf     0x03, 0x5        	BANKSEL	r0x1006
000639   1303     bcf     0x03, 0x6        
00063a   0754     addwf   0x54, 0x0        	ADDWF	r0x1006,W
00063b   00d6     movwf   0x56             	MOVWF	r0x1008
                                           ;	.line	116; "dio_prg.c"	u8Return = PORTE >> u8PinNumber ;
00063c   1283     bcf     0x03, 0x5        	BANKSEL	_PORTE
00063d   1303     bcf     0x03, 0x6        
00063e   0809     movf    0x09, 0x0        	MOVF	_PORTE,W
00063f   1683     bsf     0x03, 0x5        	BANKSEL	r0x1007
000640   1303     bcf     0x03, 0x6        
000641   00d5     movwf   0x55             	MOVWF	r0x1007
000642   0856     movf    0x56, 0x0        	MOVF	r0x1008,W
000643   3c00     sublw   0x00             	SUBLW	0x00
000644   1903     btfsc   0x03, 0x2        	BTFSC	STATUS,2
000645   2e4c     goto    0x064c           	GOTO	_00116_DS_
                                           _00150_DS_
000646   1683     bsf     0x03, 0x5        	BANKSEL	r0x1007
000647   1303     bcf     0x03, 0x6        
000648   0cd5     rrf     0x55, 0x1        	RRF	r0x1007,F
000649   3e01     addlw   0x01             	ADDLW	0x01
00064a   1c03     btfss   0x03, 0x0        	BTFSS	STATUS,0
00064b   2e46     goto    0x0646           	GOTO	_00150_DS_
                                           _00116_DS_
                                           ;	.line	119; "dio_prg.c"	u8Return &= 0x01;
00064c   3001     movlw   0x01             	MOVLW	0x01
00064d   1683     bsf     0x03, 0x5        	BANKSEL	r0x1007
00064e   1303     bcf     0x03, 0x6        
00064f   05d5     andwf   0x55, 0x1        	ANDWF	r0x1007,F
000650   2e54     goto    0x0654           	GOTO	_00119_DS_
                                           _00118_DS_
                                           ;	.line	124; "dio_prg.c"	u8Return = BTY_u8ZERO;
000651   1683     bsf     0x03, 0x5        	BANKSEL	r0x1007
000652   1303     bcf     0x03, 0x6        
000653   01d5     clrf    0x55             	CLRF	r0x1007
                                           _00119_DS_
                                           ;	.line	130; "dio_prg.c"	return(u8Return);
000654   1683     bsf     0x03, 0x5        	BANKSEL	r0x1007
000655   1303     bcf     0x03, 0x6        
000656   0855     movf    0x55, 0x0        	MOVF	r0x1007,W
000657   0008     return                   	RETURN	
                                           ; exit point of _DIO_u8ReadChannel
                                           
                                           
                                           ;	code size estimation:
                                           ;	  308+   77 =   385 instructions (  924 byte)
                                           
                                           	end
                                           ;--------------------------------------------------------
                                           ; File Created by SDCC : free open source ANSI-C Compiler
                                           ; Version 3.5.0 #9253 (Jun 20 2015) (MINGW64)
                                           ; This file was generated Tue Sep 20 01:35:01 2022
                                           ;--------------------------------------------------------
                                           ; PIC port for the 14-bit core
                                           ;--------------------------------------------------------
                                           ;	.file	"hif_prg.c"
                                           	list	p=16f877a
                                           	radix dec
                                           	include "p16f877a.inc"
                                                   LIST
                                           
                                           ;==========================================================================
                                           ; Build date : Aug 07 2014
                                           ;  MPASM PIC16F877A processor include
                                           ; 
                                           ;  (c) Copyright 1999-2014 Microchip Technology, All rights reserved
                                           ;==========================================================================
                                           
                                                   NOLIST
                                           ;--------------------------------------------------------
                                           ; external declarations
                                           ;--------------------------------------------------------
                                           	extern	_DIO_u8ReadChannel
                                           	extern	_DIO_vidWriteChannel
                                           	extern	_DIO_vidWritePort
                                           	extern	_SSD_vidInit
                                           	extern	_SSD_vidTask
                                           	extern	_SSD_SetDisplayedNumber
                                           
                                           	extern PSAVE
                                           	extern SSAVE
                                           	extern WSAVE
                                           	extern STK12
                                           	extern STK11
                                           	extern STK10
                                           	extern STK09
                                           	extern STK08
                                           	extern STK07
                                           	extern STK06
                                           	extern STK05
                                           	extern STK04
                                           	extern STK03
                                           	extern STK02
                                           	extern STK01
                                           	extern STK00
                                           ;--------------------------------------------------------
                                           ; global declarations
                                           ;--------------------------------------------------------
                                           	global	_HIF_vidSetMode
                                           	global	_HIF_vidTask
                                           	global	_HIF_vidInit
                                           
                                           ;--------------------------------------------------------
                                           ; global definitions
                                           ;--------------------------------------------------------
                                           ;--------------------------------------------------------
                                           ; absolute symbol definitions
                                           ;--------------------------------------------------------
                                           ;--------------------------------------------------------
                                           ; compiler-defined variables
                                           ;--------------------------------------------------------
                                           UDL_hif_prg_0	udata
                                           r0x1004	res	1
                                           _enuHifMode	res	1
                                           _enuHifOldMode	res	1
                                           _u8HifCounter	res	1
                                           _enuHifBlinkState	res	1
                                           ;--------------------------------------------------------
                                           ; initialized data
                                           ;--------------------------------------------------------
                                           ;--------------------------------------------------------
                                           ; overlayable items in internal ram 
                                           ;--------------------------------------------------------
                                           ;	udata_ovr
                                           ;--------------------------------------------------------
                                           ; code
                                           ;--------------------------------------------------------
                                           code_hif_prg	code
                                           ;***
                                           ;  pBlock Stats: dbName = C
                                           ;***
                                           ;entry:  _vidHazzardBlink	;Function start
                                           ; 2 exit points
                                           ;has an exit
                                           ;functions called:
                                           ;   _SSD_SetDisplayedNumber
                                           ;   _SSD_SetDisplayedNumber
                                           ;   _SSD_SetDisplayedNumber
                                           ;   _SSD_SetDisplayedNumber
                                           ;   _SSD_SetDisplayedNumber
                                           ;   _SSD_SetDisplayedNumber
                                           ;   _SSD_SetDisplayedNumber
                                           ;   _SSD_SetDisplayedNumber
                                           ;1 compiler assigned register :
                                           ;   STK00
                                           ;; Starting pCode block
                                           _vidHazzardBlink	;Function start
                                           ; 2 exit points
                                           ;	.line	162; "hif_prg.c"	u8HifCounter++;
000a87   1683     bsf     0x03, 0x5        	BANKSEL	_u8HifCounter
000a88   1303     bcf     0x03, 0x6        
000a89   0ae6     incf    0x66, 0x1        	INCF	_u8HifCounter,F
                                           ;	.line	164; "hif_prg.c"	if(enuHifBlinkState == BLINK_OFF)
000a8a   1683     bsf     0x03, 0x5        	BANKSEL	_enuHifBlinkState
000a8b   1303     bcf     0x03, 0x6        
000a8c   0867     movf    0x67, 0x0        	MOVF	_enuHifBlinkState,W
000a8d   1d03     btfss   0x03, 0x2        	BTFSS	STATUS,2
000a8e   2aad     goto    0x02ad           	GOTO	_00155_DS_
                                           ;;unsigned compare: left < lit(0x28=40), size=1
                                           ;	.line	166; "hif_prg.c"	if(u8HifCounter >= HIF_u8BLINK_OFF_THRESHOLD)
000a8f   3028     movlw   0x28             	MOVLW	0x28
000a90   1683     bsf     0x03, 0x5        	BANKSEL	_u8HifCounter
000a91   1303     bcf     0x03, 0x6        
000a92   0266     subwf   0x66, 0x0        	SUBWF	_u8HifCounter,W
000a93   1c03     btfss   0x03, 0x0        	BTFSS	STATUS,0
000a94   2ac9     goto    0x02c9           	GOTO	_00157_DS_
                                           ;;genSkipc:3247: created from rifx:00000000047558B0
                                           ;	.line	168; "hif_prg.c"	SSD_SetDisplayedNumber(SSD_SEGMENT_LEFT, 0x08);
000a95   3008     movlw   0x08             	MOVLW	0x08
000a96   00ff     movwf   0x7f             	MOVWF	STK00
000a97   3001     movlw   0x01             	MOVLW	0x01
000a98   158a     bsf     0x0a, 0x3        	PAGESEL	_SSD_SetDisplayedNumber
000a99   120a     bcf     0x0a, 0x4        
000a9a   21ca     call    0x01ca           	CALL	_SSD_SetDisplayedNumber
000a9b   158a     bsf     0x0a, 0x3        	PAGESEL	$
000a9c   120a     bcf     0x0a, 0x4        
                                           ;	.line	169; "hif_prg.c"	SSD_SetDisplayedNumber(SSD_SEGMENT_RIGHT, 0x08);
000a9d   3008     movlw   0x08             	MOVLW	0x08
000a9e   00ff     movwf   0x7f             	MOVWF	STK00
000a9f   3000     movlw   0x00             	MOVLW	0x00
000aa0   158a     bsf     0x0a, 0x3        	PAGESEL	_SSD_SetDisplayedNumber
000aa1   120a     bcf     0x0a, 0x4        
000aa2   21ca     call    0x01ca           	CALL	_SSD_SetDisplayedNumber
000aa3   158a     bsf     0x0a, 0x3        	PAGESEL	$
000aa4   120a     bcf     0x0a, 0x4        
                                           ;	.line	170; "hif_prg.c"	enuHifBlinkState = BLINK_ON;
000aa5   3001     movlw   0x01             	MOVLW	0x01
000aa6   1683     bsf     0x03, 0x5        	BANKSEL	_enuHifBlinkState
000aa7   1303     bcf     0x03, 0x6        
000aa8   00e7     movwf   0x67             	MOVWF	_enuHifBlinkState
                                           ;	.line	171; "hif_prg.c"	u8HifCounter     = BTY_u8ZERO;
000aa9   1683     bsf     0x03, 0x5        	BANKSEL	_u8HifCounter
000aaa   1303     bcf     0x03, 0x6        
000aab   01e6     clrf    0x66             	CLRF	_u8HifCounter
000aac   2ac9     goto    0x02c9           	GOTO	_00157_DS_
                                           ;;unsigned compare: left < lit(0x14=20), size=1
                                           _00155_DS_
                                           ;	.line	179; "hif_prg.c"	if(u8HifCounter >= HIF_u8BLINK_ON_THRESHOLD)
000aad   3014     movlw   0x14             	MOVLW	0x14
000aae   1683     bsf     0x03, 0x5        	BANKSEL	_u8HifCounter
000aaf   1303     bcf     0x03, 0x6        
000ab0   0266     subwf   0x66, 0x0        	SUBWF	_u8HifCounter,W
000ab1   1c03     btfss   0x03, 0x0        	BTFSS	STATUS,0
000ab2   2ac9     goto    0x02c9           	GOTO	_00157_DS_
                                           ;;genSkipc:3247: created from rifx:00000000047558B0
                                           ;	.line	181; "hif_prg.c"	SSD_SetDisplayedNumber(SSD_SEGMENT_LEFT, 18);
000ab3   3012     movlw   0x12             	MOVLW	0x12
000ab4   00ff     movwf   0x7f             	MOVWF	STK00
000ab5   3001     movlw   0x01             	MOVLW	0x01
000ab6   158a     bsf     0x0a, 0x3        	PAGESEL	_SSD_SetDisplayedNumber
000ab7   120a     bcf     0x0a, 0x4        
000ab8   21ca     call    0x01ca           	CALL	_SSD_SetDisplayedNumber
000ab9   158a     bsf     0x0a, 0x3        	PAGESEL	$
000aba   120a     bcf     0x0a, 0x4        
                                           ;	.line	182; "hif_prg.c"	SSD_SetDisplayedNumber(SSD_SEGMENT_RIGHT, 18);
000abb   3012     movlw   0x12             	MOVLW	0x12
000abc   00ff     movwf   0x7f             	MOVWF	STK00
000abd   3000     movlw   0x00             	MOVLW	0x00
000abe   158a     bsf     0x0a, 0x3        	PAGESEL	_SSD_SetDisplayedNumber
000abf   120a     bcf     0x0a, 0x4        
000ac0   21ca     call    0x01ca           	CALL	_SSD_SetDisplayedNumber
000ac1   158a     bsf     0x0a, 0x3        	PAGESEL	$
000ac2   120a     bcf     0x0a, 0x4        
                                           ;	.line	183; "hif_prg.c"	enuHifBlinkState = BLINK_OFF;
000ac3   1683     bsf     0x03, 0x5        	BANKSEL	_enuHifBlinkState
000ac4   1303     bcf     0x03, 0x6        
000ac5   01e7     clrf    0x67             	CLRF	_enuHifBlinkState
                                           ;	.line	184; "hif_prg.c"	u8HifCounter     = BTY_u8ZERO;
000ac6   1683     bsf     0x03, 0x5        	BANKSEL	_u8HifCounter
000ac7   1303     bcf     0x03, 0x6        
000ac8   01e6     clrf    0x66             	CLRF	_u8HifCounter
                                           _00157_DS_
000ac9   0008     return                   	RETURN	
                                           ; exit point of _vidHazzardBlink
                                           
                                           ;***
                                           ;  pBlock Stats: dbName = C
                                           ;***
                                           ;entry:  _HIF_vidSetMode	;Function start
                                           ; 2 exit points
                                           ;has an exit
                                           ;1 compiler assigned register :
                                           ;   r0x1004
                                           ;; Starting pCode block
                                           _HIF_vidSetMode	;Function start
                                           ; 2 exit points
                                           ;	.line	135; "hif_prg.c"	void HIF_vidSetMode(HIF_tenuMode enuHifSetMode)
000aca   1683     bsf     0x03, 0x5        	BANKSEL	r0x1004
000acb   1303     bcf     0x03, 0x6        
000acc   00e3     movwf   0x63             	MOVWF	r0x1004
                                           ;;unsigned compare: left < lit(0x2=2), size=1
                                           ;	.line	137; "hif_prg.c"	if((enuHifSetMode < HIF_UNDEFINED_MODE) &&
000acd   3002     movlw   0x02             	MOVLW	0x02
000ace   0263     subwf   0x63, 0x0        	SUBWF	r0x1004,W
000acf   1803     btfsc   0x03, 0x0        	BTFSC	STATUS,0
000ad0   2aeb     goto    0x02eb           	GOTO	_00136_DS_
                                           ;;genSkipc:3247: created from rifx:00000000047558B0
                                           ;	.line	138; "hif_prg.c"	(enuHifSetMode != enuHifMode))
000ad1   1683     bsf     0x03, 0x5        	BANKSEL	_enuHifMode
000ad2   1303     bcf     0x03, 0x6        
000ad3   0864     movf    0x64, 0x0        	MOVF	_enuHifMode,W
                                           ;	.line	140; "hif_prg.c"	enuHifOldMode = enuHifMode;
000ad4   1683     bsf     0x03, 0x5        	BANKSEL	r0x1004
000ad5   1303     bcf     0x03, 0x6        
000ad6   0663     xorwf   0x63, 0x0        	XORWF	r0x1004,W
000ad7   1903     btfsc   0x03, 0x2        	BTFSC	STATUS,2
000ad8   2aeb     goto    0x02eb           	GOTO	_00136_DS_
000ad9   1683     bsf     0x03, 0x5        	BANKSEL	_enuHifMode
000ada   1303     bcf     0x03, 0x6        
000adb   0864     movf    0x64, 0x0        	MOVF	_enuHifMode,W
000adc   1683     bsf     0x03, 0x5        	BANKSEL	_enuHifOldMode
000add   1303     bcf     0x03, 0x6        
000ade   00e5     movwf   0x65             	MOVWF	_enuHifOldMode
                                           ;	.line	141; "hif_prg.c"	u8HifCounter  = BTY_u8ZERO;
000adf   1683     bsf     0x03, 0x5        	BANKSEL	_u8HifCounter
000ae0   1303     bcf     0x03, 0x6        
000ae1   01e6     clrf    0x66             	CLRF	_u8HifCounter
                                           ;	.line	142; "hif_prg.c"	enuHifBlinkState = BLINK_OFF;
000ae2   1683     bsf     0x03, 0x5        	BANKSEL	_enuHifBlinkState
000ae3   1303     bcf     0x03, 0x6        
000ae4   01e7     clrf    0x67             	CLRF	_enuHifBlinkState
                                           ;	.line	143; "hif_prg.c"	enuHifMode    = enuHifSetMode;
000ae5   1683     bsf     0x03, 0x5        	BANKSEL	r0x1004
000ae6   1303     bcf     0x03, 0x6        
000ae7   0863     movf    0x63, 0x0        	MOVF	r0x1004,W
000ae8   1683     bsf     0x03, 0x5        	BANKSEL	_enuHifMode
000ae9   1303     bcf     0x03, 0x6        
000aea   00e4     movwf   0x64             	MOVWF	_enuHifMode
                                           _00136_DS_
000aeb   0008     return                   	RETURN	
                                           ; exit point of _HIF_vidSetMode
                                           
                                           ;***
                                           ;  pBlock Stats: dbName = C
                                           ;***
                                           ;entry:  _HIF_vidTask	;Function start
                                           ; 2 exit points
                                           ;has an exit
                                           ;functions called:
                                           ;   _SSD_SetDisplayedNumber
                                           ;   _SSD_SetDisplayedNumber
                                           ;   _vidHazzardBlink
                                           ;   _SSD_SetDisplayedNumber
                                           ;   _SSD_SetDisplayedNumber
                                           ;   _vidHazzardBlink
                                           ;1 compiler assigned register :
                                           ;   STK00
                                           ;; Starting pCode block
                                           _HIF_vidTask	;Function start
                                           ; 2 exit points
                                           ;	.line	106; "hif_prg.c"	switch(enuHifMode)
000aec   1683     bsf     0x03, 0x5        	BANKSEL	_enuHifMode
000aed   1303     bcf     0x03, 0x6        
000aee   0864     movf    0x64, 0x0        	MOVF	_enuHifMode,W
000aef   1903     btfsc   0x03, 0x2        	BTFSC	STATUS,2
000af0   2af6     goto    0x02f6           	GOTO	_00109_DS_
000af1   0864     movf    0x64, 0x0        	MOVF	_enuHifMode,W
000af2   3a01     xorlw   0x01             	XORLW	0x01
000af3   1903     btfsc   0x03, 0x2        	BTFSC	STATUS,2
000af4   2b15     goto    0x0315           	GOTO	_00112_DS_
000af5   2b16     goto    0x0316           	GOTO	_00115_DS_
                                           _00109_DS_
                                           ;	.line	109; "hif_prg.c"	if(enuHifMode != enuHifOldMode)
000af6   1683     bsf     0x03, 0x5        	BANKSEL	_enuHifOldMode
000af7   1303     bcf     0x03, 0x6        
000af8   0865     movf    0x65, 0x0        	MOVF	_enuHifOldMode,W
                                           ;	.line	111; "hif_prg.c"	SSD_SetDisplayedNumber(SSD_SEGMENT_LEFT, 18);
000af9   1683     bsf     0x03, 0x5        	BANKSEL	_enuHifMode
000afa   1303     bcf     0x03, 0x6        
000afb   0664     xorwf   0x64, 0x0        	XORWF	_enuHifMode,W
000afc   1903     btfsc   0x03, 0x2        	BTFSC	STATUS,2
000afd   2b16     goto    0x0316           	GOTO	_00115_DS_
000afe   3012     movlw   0x12             	MOVLW	0x12
000aff   00ff     movwf   0x7f             	MOVWF	STK00
000b00   3001     movlw   0x01             	MOVLW	0x01
000b01   158a     bsf     0x0a, 0x3        	PAGESEL	_SSD_SetDisplayedNumber
000b02   120a     bcf     0x0a, 0x4        
000b03   21ca     call    0x01ca           	CALL	_SSD_SetDisplayedNumber
000b04   158a     bsf     0x0a, 0x3        	PAGESEL	$
000b05   120a     bcf     0x0a, 0x4        
                                           ;	.line	112; "hif_prg.c"	SSD_SetDisplayedNumber(SSD_SEGMENT_RIGHT, 18);
000b06   3012     movlw   0x12             	MOVLW	0x12
000b07   00ff     movwf   0x7f             	MOVWF	STK00
000b08   3000     movlw   0x00             	MOVLW	0x00
000b09   158a     bsf     0x0a, 0x3        	PAGESEL	_SSD_SetDisplayedNumber
000b0a   120a     bcf     0x0a, 0x4        
000b0b   21ca     call    0x01ca           	CALL	_SSD_SetDisplayedNumber
000b0c   158a     bsf     0x0a, 0x3        	PAGESEL	$
000b0d   120a     bcf     0x0a, 0x4        
                                           ;	.line	113; "hif_prg.c"	enuHifOldMode = enuHifMode;
000b0e   1683     bsf     0x03, 0x5        	BANKSEL	_enuHifMode
000b0f   1303     bcf     0x03, 0x6        
000b10   0864     movf    0x64, 0x0        	MOVF	_enuHifMode,W
000b11   1683     bsf     0x03, 0x5        	BANKSEL	_enuHifOldMode
000b12   1303     bcf     0x03, 0x6        
000b13   00e5     movwf   0x65             	MOVWF	_enuHifOldMode
                                           ;	.line	119; "hif_prg.c"	break;
000b14   2b16     goto    0x0316           	GOTO	_00115_DS_
                                           _00112_DS_
                                           ;	.line	122; "hif_prg.c"	vidHazzardBlink();
000b15   2287     call    0x0287           	CALL	_vidHazzardBlink
                                           _00115_DS_
                                           ;	.line	127; "hif_prg.c"	}
000b16   0008     return                   	RETURN	
                                           ; exit point of _HIF_vidTask
                                           
                                           ;***
                                           ;  pBlock Stats: dbName = C
                                           ;***
                                           ;entry:  _HIF_vidInit	;Function start
                                           ; 2 exit points
                                           ;has an exit
                                           ;; Starting pCode block
                                           _HIF_vidInit	;Function start
                                           ; 2 exit points
                                           ;	.line	93; "hif_prg.c"	enuHifMode       = HIF_OFF_MODE;
000b17   1683     bsf     0x03, 0x5        	BANKSEL	_enuHifMode
000b18   1303     bcf     0x03, 0x6        
000b19   01e4     clrf    0x64             	CLRF	_enuHifMode
                                           ;	.line	94; "hif_prg.c"	enuHifOldMode    = HIF_OFF_MODE;
000b1a   1683     bsf     0x03, 0x5        	BANKSEL	_enuHifOldMode
000b1b   1303     bcf     0x03, 0x6        
000b1c   01e5     clrf    0x65             	CLRF	_enuHifOldMode
                                           ;	.line	95; "hif_prg.c"	u8HifCounter     = BTY_u8ZERO;
000b1d   1683     bsf     0x03, 0x5        	BANKSEL	_u8HifCounter
000b1e   1303     bcf     0x03, 0x6        
000b1f   01e6     clrf    0x66             	CLRF	_u8HifCounter
                                           ;	.line	96; "hif_prg.c"	enuHifBlinkState = BLINK_OFF;
000b20   1683     bsf     0x03, 0x5        	BANKSEL	_enuHifBlinkState
000b21   1303     bcf     0x03, 0x6        
000b22   01e7     clrf    0x67             	CLRF	_enuHifBlinkState
000b23   0008     return                   	RETURN	
                                           ; exit point of _HIF_vidInit
                                           
                                           
                                           ;	code size estimation:
                                           ;	   81+   38 =   119 instructions (  314 byte)
                                           
                                           	end
                                           ;--------------------------------------------------------
                                           ; File Created by SDCC : free open source ANSI-C Compiler
                                           ; Version 3.5.0 #9253 (Jun 20 2015) (MINGW64)
                                           ; This file was generated Thu Nov 10 17:39:59 2022
                                           ;--------------------------------------------------------
                                           ; PIC port for the 14-bit core
                                           ;--------------------------------------------------------
                                           ;	.file	"main.c"
                                           	list	p=16f877a
                                           	radix dec
                                           	include "p16f877a.inc"
                                                   LIST
                                           
                                           ;==========================================================================
                                           ; Build date : Aug 07 2014
                                           ;  MPASM PIC16F877A processor include
                                           ; 
                                           ;  (c) Copyright 1999-2014 Microchip Technology, All rights reserved
                                           ;==========================================================================
                                           
                                                   NOLIST
                                           ;--------------------------------------------------------
                                           ; external declarations
                                           ;--------------------------------------------------------
                                           	extern	_PORT_vidInit
                                           	extern	_DIO_u8ReadChannel
                                           	extern	_DIO_vidWriteChannel
                                           	extern	_DIO_vidWritePort
                                           	extern	_MCU_vidInit
                                           	extern	_SSD_vidInit
                                           	extern	_SSD_vidTask
                                           	extern	_SSD_SetDisplayedNumber
                                           	extern	_PBD_vidInit
                                           	extern	_PBD_vidTask
                                           	extern	_PBD_enuGetButtonState
                                           	extern	_TIF_vidInit
                                           	extern	_TIF_vidTask
                                           	extern	_TIF_vidSetMode
                                           	extern	_HIF_vidInit
                                           	extern	_HIF_vidTask
                                           	extern	_HIF_vidSetMode
                                           	extern	_MODE_vidInit
                                           	extern	_MODE_vidTask
                                           	extern	_SCHED_vidInit
                                           	extern	_SCHED_vidStartScheduler
                                           	extern	_SCHED_vidRtcInterrupt
                                           	extern	__sdcc_gsinit_startup
                                           ;--------------------------------------------------------
                                           ; global declarations
                                           ;--------------------------------------------------------
                                           	global	_main
                                           
                                           	global PSAVE
                                           	global SSAVE
                                           	global WSAVE
                                           	global STK12
                                           	global STK11
                                           	global STK10
                                           	global STK09
                                           	global STK08
                                           	global STK07
                                           	global STK06
                                           	global STK05
                                           	global STK04
                                           	global STK03
                                           	global STK02
                                           	global STK01
                                           	global STK00
                                           
                                           sharebank udata_ovr 0x0070
                                           PSAVE	res 1
                                           SSAVE	res 1
                                           WSAVE	res 1
                                           STK12	res 1
                                           STK11	res 1
                                           STK10	res 1
                                           STK09	res 1
                                           STK08	res 1
                                           STK07	res 1
                                           STK06	res 1
                                           STK05	res 1
                                           STK04	res 1
                                           STK03	res 1
                                           STK02	res 1
                                           STK01	res 1
                                           STK00	res 1
                                           
                                           ;--------------------------------------------------------
                                           ; global definitions
                                           ;--------------------------------------------------------
                                           ;--------------------------------------------------------
                                           ; absolute symbol definitions
                                           ;--------------------------------------------------------
                                           ;--------------------------------------------------------
                                           ; compiler-defined variables
                                           ;--------------------------------------------------------
                                           ;--------------------------------------------------------
                                           ; initialized data
                                           ;--------------------------------------------------------
                                           ;--------------------------------------------------------
                                           ; overlayable items in internal ram 
                                           ;--------------------------------------------------------
                                           ;	udata_ovr
                                           ;--------------------------------------------------------
                                           ; reset vector 
                                           ;--------------------------------------------------------
                                           STARTUP	code 0x0000
000000   0000     nop                      	nop
000001   158a     bsf     0x0a, 0x3        	pagesel __sdcc_gsinit_startup
000002   120a     bcf     0x0a, 0x4        
000003   2b24     goto    0x0324           	goto	__sdcc_gsinit_startup
                                           ;--------------------------------------------------------
                                           ; code
                                           ;--------------------------------------------------------
                                           code_main	code
                                           ;***
                                           ;  pBlock Stats: dbName = M
                                           ;***
                                           ;entry:  _main	;Function start
                                           ; 2 exit points
                                           ;has an exit
                                           ;functions called:
                                           ;   _vidInit
                                           ;   _SCHED_vidStartScheduler
                                           ;   _vidInit
                                           ;   _SCHED_vidStartScheduler
                                           ;; Starting pCode block
                                           _main	;Function start
                                           ; 2 exit points
                                           ;	.line	60; "main.c"	vidInit();
0007ca   27d1     call    0x07d1           	CALL	_vidInit
                                           ;	.line	63; "main.c"	SCHED_vidStartScheduler();
0007cb   118a     bcf     0x0a, 0x3        	PAGESEL	_SCHED_vidStartScheduler
0007cc   120a     bcf     0x0a, 0x4        
0007cd   2721     call    0x0721           	CALL	_SCHED_vidStartScheduler
0007ce   118a     bcf     0x0a, 0x3        	PAGESEL	$
0007cf   120a     bcf     0x0a, 0x4        
0007d0   0008     return                   	RETURN	
                                           ; exit point of _main
                                           
                                           ;***
                                           ;  pBlock Stats: dbName = C
                                           ;***
                                           ;entry:  _vidInit	;Function start
                                           ; 2 exit points
                                           ;has an exit
                                           ;functions called:
                                           ;   _PORT_vidInit
                                           ;   _MCU_vidInit
                                           ;   _SSD_vidInit
                                           ;   _PBD_vidInit
                                           ;   _MODE_vidInit
                                           ;   _SCHED_vidInit
                                           ;   _PORT_vidInit
                                           ;   _MCU_vidInit
                                           ;   _SSD_vidInit
                                           ;   _PBD_vidInit
                                           ;   _MODE_vidInit
                                           ;   _SCHED_vidInit
                                           ;; Starting pCode block
                                           _vidInit	;Function start
                                           ; 2 exit points
                                           ;	.line	70; "main.c"	PORT_vidInit();
0007d1   158a     bsf     0x0a, 0x3        	PAGESEL	_PORT_vidInit
0007d2   120a     bcf     0x0a, 0x4        
0007d3   2416     call    0x0416           	CALL	_PORT_vidInit
0007d4   118a     bcf     0x0a, 0x3        	PAGESEL	$
0007d5   120a     bcf     0x0a, 0x4        
                                           ;	.line	71; "main.c"	MCU_vidInit();
0007d6   118a     bcf     0x0a, 0x3        	PAGESEL	_MCU_vidInit
0007d7   120a     bcf     0x0a, 0x4        
0007d8   27f0     call    0x07f0           	CALL	_MCU_vidInit
0007d9   118a     bcf     0x0a, 0x3        	PAGESEL	$
0007da   120a     bcf     0x0a, 0x4        
                                           ;	.line	73; "main.c"	SSD_vidInit();
0007db   158a     bsf     0x0a, 0x3        	PAGESEL	_SSD_vidInit
0007dc   120a     bcf     0x0a, 0x4        
0007dd   2256     call    0x0256           	CALL	_SSD_vidInit
0007de   118a     bcf     0x0a, 0x3        	PAGESEL	$
0007df   120a     bcf     0x0a, 0x4        
                                           ;	.line	74; "main.c"	PBD_vidInit();
0007e0   118a     bcf     0x0a, 0x3        	PAGESEL	_PBD_vidInit
0007e1   120a     bcf     0x0a, 0x4        
0007e2   242a     call    0x042a           	CALL	_PBD_vidInit
0007e3   118a     bcf     0x0a, 0x3        	PAGESEL	$
0007e4   120a     bcf     0x0a, 0x4        
                                           ;	.line	76; "main.c"	MODE_vidInit();
0007e5   158a     bsf     0x0a, 0x3        	PAGESEL	_MODE_vidInit
0007e6   120a     bcf     0x0a, 0x4        
0007e7   20f2     call    0x00f2           	CALL	_MODE_vidInit
0007e8   118a     bcf     0x0a, 0x3        	PAGESEL	$
0007e9   120a     bcf     0x0a, 0x4        
                                           ;	.line	79; "main.c"	SCHED_vidInit();
0007ea   118a     bcf     0x0a, 0x3        	PAGESEL	_SCHED_vidInit
0007eb   120a     bcf     0x0a, 0x4        
0007ec   272b     call    0x072b           	CALL	_SCHED_vidInit
0007ed   118a     bcf     0x0a, 0x3        	PAGESEL	$
0007ee   120a     bcf     0x0a, 0x4        
0007ef   0008     return                   	RETURN	
                                           ; exit point of _vidInit
                                           
                                           
                                           ;	code size estimation:
                                           ;	   10+   14 =    24 instructions (   76 byte)
                                           
                                           	end
                                           ;--------------------------------------------------------
                                           ; File Created by SDCC : free open source ANSI-C Compiler
                                           ; Version 3.5.0 #9253 (Jun 20 2015) (MINGW64)
                                           ; This file was generated Thu Nov 10 14:55:35 2022
                                           ;--------------------------------------------------------
                                           ; PIC port for the 14-bit core
                                           ;--------------------------------------------------------
                                           ;	.file	"mcu_prg.c"
                                           	list	p=16f877a
                                           	radix dec
                                           	include "p16f877a.inc"
                                                   LIST
                                           
                                           ;==========================================================================
                                           ; Build date : Aug 07 2014
                                           ;  MPASM PIC16F877A processor include
                                           ; 
                                           ;  (c) Copyright 1999-2014 Microchip Technology, All rights reserved
                                           ;==========================================================================
                                           
                                                   NOLIST
                                           ;--------------------------------------------------------
                                           ; config word(s)
                                           ;--------------------------------------------------------
002007   3f3a     addlw   0x3a             	__config 0x3f3a
                                           ;--------------------------------------------------------
                                           ; external declarations
                                           ;--------------------------------------------------------
                                           	extern	_SCHED_vidInit
                                           	extern	_SCHED_vidStartScheduler
                                           	extern	_SCHED_vidRtcInterrupt
                                           	extern	_STATUSbits
                                           	extern	_PORTAbits
                                           	extern	_PORTBbits
                                           	extern	_PORTCbits
                                           	extern	_PORTDbits
                                           	extern	_PORTEbits
                                           	extern	_INTCONbits
                                           	extern	_PIR1bits
                                           	extern	_PIR2bits
                                           	extern	_T1CONbits
                                           	extern	_T2CONbits
                                           	extern	_SSPCONbits
                                           	extern	_CCP1CONbits
                                           	extern	_RCSTAbits
                                           	extern	_CCP2CONbits
                                           	extern	_ADCON0bits
                                           	extern	_OPTION_REGbits
                                           	extern	_TRISAbits
                                           	extern	_TRISBbits
                                           	extern	_TRISCbits
                                           	extern	_TRISDbits
                                           	extern	_TRISEbits
                                           	extern	_PIE1bits
                                           	extern	_PIE2bits
                                           	extern	_PCONbits
                                           	extern	_SSPCON2bits
                                           	extern	_SSPSTATbits
                                           	extern	_TXSTAbits
                                           	extern	_CMCONbits
                                           	extern	_CVRCONbits
                                           	extern	_ADCON1bits
                                           	extern	_EECON1bits
                                           	extern	_INDF
                                           	extern	_TMR0
                                           	extern	_PCL
                                           	extern	_STATUS
                                           	extern	_FSR
                                           	extern	_PORTA
                                           	extern	_PORTB
                                           	extern	_PORTC
                                           	extern	_PORTD
                                           	extern	_PORTE
                                           	extern	_PCLATH
                                           	extern	_INTCON
                                           	extern	_PIR1
                                           	extern	_PIR2
                                           	extern	_TMR1
                                           	extern	_TMR1L
                                           	extern	_TMR1H
                                           	extern	_T1CON
                                           	extern	_TMR2
                                           	extern	_T2CON
                                           	extern	_SSPBUF
                                           	extern	_SSPCON
                                           	extern	_CCPR1
                                           	extern	_CCPR1L
                                           	extern	_CCPR1H
                                           	extern	_CCP1CON
                                           	extern	_RCSTA
                                           	extern	_TXREG
                                           	extern	_RCREG
                                           	extern	_CCPR2
                                           	extern	_CCPR2L
                                           	extern	_CCPR2H
                                           	extern	_CCP2CON
                                           	extern	_ADRESH
                                           	extern	_ADCON0
                                           	extern	_OPTION_REG
                                           	extern	_TRISA
                                           	extern	_TRISB
                                           	extern	_TRISC
                                           	extern	_TRISD
                                           	extern	_TRISE
                                           	extern	_PIE1
                                           	extern	_PIE2
                                           	extern	_PCON
                                           	extern	_SSPCON2
                                           	extern	_PR2
                                           	extern	_SSPADD
                                           	extern	_SSPSTAT
                                           	extern	_TXSTA
                                           	extern	_SPBRG
                                           	extern	_CMCON
                                           	extern	_CVRCON
                                           	extern	_ADRESL
                                           	extern	_ADCON1
                                           	extern	_EEDATA
                                           	extern	_EEADR
                                           	extern	_EEDATH
                                           	extern	_EEADRH
                                           	extern	_EECON1
                                           	extern	_EECON2
                                           	extern	___sdcc_saved_fsr
                                           
                                           	extern PSAVE
                                           	extern SSAVE
                                           	extern WSAVE
                                           	extern STK12
                                           	extern STK11
                                           	extern STK10
                                           	extern STK09
                                           	extern STK08
                                           	extern STK07
                                           	extern STK06
                                           	extern STK05
                                           	extern STK04
                                           	extern STK03
                                           	extern STK02
                                           	extern STK01
                                           	extern STK00
                                           ;--------------------------------------------------------
                                           ; global declarations
                                           ;--------------------------------------------------------
                                           	global	_MCU_vidInit
                                           	global	_myIntr
                                           
                                           ;--------------------------------------------------------
                                           ; global definitions
                                           ;--------------------------------------------------------
                                           ;--------------------------------------------------------
                                           ; absolute symbol definitions
                                           ;--------------------------------------------------------
                                           ;--------------------------------------------------------
                                           ; compiler-defined variables
                                           ;--------------------------------------------------------
                                           ;--------------------------------------------------------
                                           ; initialized data
                                           ;--------------------------------------------------------
                                           ;--------------------------------------------------------
                                           ; overlayable items in internal ram 
                                           ;--------------------------------------------------------
                                           ;	udata_ovr
                                           ;--------------------------------------------------------
                                           ; interrupt and initialization code
                                           ;--------------------------------------------------------
                                           c_interrupt	code	0x4
                                           __sdcc_interrupt
                                           ;***
                                           ;  pBlock Stats: dbName = I
                                           ;***
                                           ;entry:  _myIntr	;Function start
                                           ; 0 exit points
                                           ;functions called:
                                           ;   _SCHED_vidRtcInterrupt
                                           ;   _SCHED_vidRtcInterrupt
                                           ;; Starting pCode block
                                           _myIntr	;Function start
                                           ; 0 exit points
                                           ;	.line	88; "mcu_prg.c"	void myIntr(void) __interrupt 0
000004   00f2     movwf   0x72             	MOVWF	WSAVE
000005   0e03     swapf   0x03, 0x0        	SWAPF	STATUS,W
000006   0183     clrf    0x03             	CLRF	STATUS
000007   00f1     movwf   0x71             	MOVWF	SSAVE
000008   080a     movf    0x0a, 0x0        	MOVF	PCLATH,W
000009   018a     clrf    0x0a             	CLRF	PCLATH
00000a   00f0     movwf   0x70             	MOVWF	PSAVE
00000b   0804     movf    0x04, 0x0        	MOVF	FSR,W
00000c   1283     bcf     0x03, 0x5        	BANKSEL	___sdcc_saved_fsr
00000d   1303     bcf     0x03, 0x6        
00000e   00ee     movwf   0x6e             	MOVWF	___sdcc_saved_fsr
                                           ;	.line	91; "mcu_prg.c"	GIE =0;
00000f   1283     bcf     0x03, 0x5        	BANKSEL	_INTCONbits
000010   1303     bcf     0x03, 0x6        
000011   138b     bcf     0x0b, 0x7        	BCF	_INTCONbits,7
                                           ;	.line	94; "mcu_prg.c"	TMR0IF =0;
000012   110b     bcf     0x0b, 0x2        	BCF	_INTCONbits,2
                                           ;	.line	97; "mcu_prg.c"	SCHED_vidRtcInterrupt();
000013   118a     bcf     0x0a, 0x3        	PAGESEL	_SCHED_vidRtcInterrupt
000014   120a     bcf     0x0a, 0x4        
000015   2658     call    0x0658           	CALL	_SCHED_vidRtcInterrupt
000016   118a     bcf     0x0a, 0x3        	PAGESEL	$
000017   120a     bcf     0x0a, 0x4        
                                           ;	.line	100; "mcu_prg.c"	GIE = 1;
000018   1283     bcf     0x03, 0x5        	BANKSEL	_INTCONbits
000019   1303     bcf     0x03, 0x6        
00001a   178b     bsf     0x0b, 0x7        	BSF	_INTCONbits,7
00001b   1283     bcf     0x03, 0x5        	BANKSEL	___sdcc_saved_fsr
00001c   1303     bcf     0x03, 0x6        
00001d   086e     movf    0x6e, 0x0        	MOVF	___sdcc_saved_fsr,W
00001e   1283     bcf     0x03, 0x5        	BANKSEL	FSR
00001f   1303     bcf     0x03, 0x6        
000020   0084     movwf   0x04             	MOVWF	FSR
000021   0870     movf    0x70, 0x0        	MOVF	PSAVE,W
000022   008a     movwf   0x0a             	MOVWF	PCLATH
000023   0183     clrf    0x03             	CLRF	STATUS
000024   0e71     swapf   0x71, 0x0        	SWAPF	SSAVE,W
000025   0083     movwf   0x03             	MOVWF	STATUS
000026   0ef2     swapf   0x72, 0x1        	SWAPF	WSAVE,F
000027   0e72     swapf   0x72, 0x0        	SWAPF	WSAVE,W
                                           END_OF_INTERRUPT
000028   0009     retfie                   	RETFIE	
                                           
                                           ;--------------------------------------------------------
                                           ; code
                                           ;--------------------------------------------------------
                                           code_mcu_prg	code
                                           ;***
                                           ;  pBlock Stats: dbName = C
                                           ;***
                                           ;entry:  _MCU_vidInit	;Function start
                                           ; 2 exit points
                                           ;has an exit
                                           ;; Starting pCode block
                                           _MCU_vidInit	;Function start
                                           ; 2 exit points
                                           ;	.line	65; "mcu_prg.c"	T0CS = 0;
0007f0   1683     bsf     0x03, 0x5        	BANKSEL	_OPTION_REGbits
0007f1   1303     bcf     0x03, 0x6        
0007f2   1281     bcf     0x01, 0x5        	BCF	_OPTION_REGbits,5
                                           ;	.line	68; "mcu_prg.c"	PSA = 0;
0007f3   1181     bcf     0x01, 0x3        	BCF	_OPTION_REGbits,3
                                           ;	.line	71; "mcu_prg.c"	PS0 = 0;
0007f4   1001     bcf     0x01, 0x0        	BCF	_OPTION_REGbits,0
                                           ;	.line	72; "mcu_prg.c"	PS1 = 1;
0007f5   1481     bsf     0x01, 0x1        	BSF	_OPTION_REGbits,1
                                           ;	.line	73; "mcu_prg.c"	PS2 = 0;
0007f6   1101     bcf     0x01, 0x2        	BCF	_OPTION_REGbits,2
                                           ;	.line	76; "mcu_prg.c"	GIE =1;
0007f7   1283     bcf     0x03, 0x5        	BANKSEL	_INTCONbits
0007f8   1303     bcf     0x03, 0x6        
0007f9   178b     bsf     0x0b, 0x7        	BSF	_INTCONbits,7
                                           ;	.line	77; "mcu_prg.c"	PEIE =1;
0007fa   170b     bsf     0x0b, 0x6        	BSF	_INTCONbits,6
                                           ;	.line	78; "mcu_prg.c"	TMR0IE = 1;
0007fb   168b     bsf     0x0b, 0x5        	BSF	_INTCONbits,5
                                           ;	.line	79; "mcu_prg.c"	TMR0IF = 0;
0007fc   110b     bcf     0x0b, 0x2        	BCF	_INTCONbits,2
0007fd   0008     return                   	RETURN	
                                           ; exit point of _MCU_vidInit
                                           
                                           
                                           ;	code size estimation:
                                           ;	   33+    9 =    42 instructions (  102 byte)
                                           
                                           	end
                                           ;--------------------------------------------------------
                                           ; File Created by SDCC : free open source ANSI-C Compiler
                                           ; Version 3.5.0 #9253 (Jun 20 2015) (MINGW64)
                                           ; This file was generated Thu Nov 10 17:40:19 2022
                                           ;--------------------------------------------------------
                                           ; PIC port for the 14-bit core
                                           ;--------------------------------------------------------
                                           ;	.file	"MODE_int.c"
                                           	list	p=16f877a
                                           	radix dec
                                           	include "p16f877a.inc"
                                                   LIST
                                           
                                           ;==========================================================================
                                           ; Build date : Aug 07 2014
                                           ;  MPASM PIC16F877A processor include
                                           ; 
                                           ;  (c) Copyright 1999-2014 Microchip Technology, All rights reserved
                                           ;==========================================================================
                                           
                                                   NOLIST
                                           ;--------------------------------------------------------
                                           ; external declarations
                                           ;--------------------------------------------------------
                                           	extern	_TIF_vidInit
                                           	extern	_TIF_vidTask
                                           	extern	_TIF_vidSetMode
                                           	extern	_HIF_vidInit
                                           	extern	_HIF_vidTask
                                           	extern	_HIF_vidSetMode
                                           	extern	_DIO_u8ReadChannel
                                           	extern	_DIO_vidWriteChannel
                                           	extern	_DIO_vidWritePort
                                           	extern	_PBD_vidInit
                                           	extern	_PBD_vidTask
                                           	extern	_PBD_enuGetButtonState
                                           
                                           	extern PSAVE
                                           	extern SSAVE
                                           	extern WSAVE
                                           	extern STK12
                                           	extern STK11
                                           	extern STK10
                                           	extern STK09
                                           	extern STK08
                                           	extern STK07
                                           	extern STK06
                                           	extern STK05
                                           	extern STK04
                                           	extern STK03
                                           	extern STK02
                                           	extern STK01
                                           	extern STK00
                                           ;--------------------------------------------------------
                                           ; global declarations
                                           ;--------------------------------------------------------
                                           	global	_MODE_vidTask
                                           	global	_MODE_vidInit
                                           
                                           ;--------------------------------------------------------
                                           ; global definitions
                                           ;--------------------------------------------------------
                                           ;--------------------------------------------------------
                                           ; absolute symbol definitions
                                           ;--------------------------------------------------------
                                           ;--------------------------------------------------------
                                           ; compiler-defined variables
                                           ;--------------------------------------------------------
                                           UDL_MODE_int_0	udata
                                           r0x1002	res	1
                                           r0x1003	res	1
                                           r0x1004	res	1
                                           _ModeState	res	1
                                           _MODE_vidTask_PreviousState_1_18	res	1
                                           ;--------------------------------------------------------
                                           ; initialized data
                                           ;--------------------------------------------------------
                                           ;--------------------------------------------------------
                                           ; overlayable items in internal ram 
                                           ;--------------------------------------------------------
                                           ;	udata_ovr
                                           ;--------------------------------------------------------
                                           ; code
                                           ;--------------------------------------------------------
                                           code_MODE_int	code
                                           ;***
                                           ;  pBlock Stats: dbName = C
                                           ;***
                                           ;entry:  _MODE_vidTask	;Function start
                                           ; 2 exit points
                                           ;has an exit
                                           ;functions called:
                                           ;   _PBD_enuGetButtonState
                                           ;   _PBD_enuGetButtonState
                                           ;   _PBD_enuGetButtonState
                                           ;   _HIF_vidSetMode
                                           ;   _TIF_vidSetMode
                                           ;   _HIF_vidSetMode
                                           ;   _TIF_vidSetMode
                                           ;   _HIF_vidSetMode
                                           ;   _TIF_vidSetMode
                                           ;   _HIF_vidSetMode
                                           ;   _TIF_vidSetMode
                                           ;   _PBD_enuGetButtonState
                                           ;   _PBD_enuGetButtonState
                                           ;   _PBD_enuGetButtonState
                                           ;   _HIF_vidSetMode
                                           ;   _TIF_vidSetMode
                                           ;   _HIF_vidSetMode
                                           ;   _TIF_vidSetMode
                                           ;   _HIF_vidSetMode
                                           ;   _TIF_vidSetMode
                                           ;   _HIF_vidSetMode
                                           ;   _TIF_vidSetMode
                                           ;3 compiler assigned registers:
                                           ;   r0x1002
                                           ;   r0x1003
                                           ;   r0x1004
                                           ;; Starting pCode block
                                           _MODE_vidTask	;Function start
                                           ; 2 exit points
                                           ;	.line	36; "MODE_int.c"	PBD_tenuButtonId ButtonStateDown = PBD_enuGetButtonState(PBD_BUTTON_STEP_DOWN);
000800   3000     movlw   0x00             	MOVLW	0x00
000801   118a     bcf     0x0a, 0x3        	PAGESEL	_PBD_enuGetButtonState
000802   120a     bcf     0x0a, 0x4        
000803   23e7     call    0x03e7           	CALL	_PBD_enuGetButtonState
000804   158a     bsf     0x0a, 0x3        	PAGESEL	$
000805   120a     bcf     0x0a, 0x4        
000806   1683     bsf     0x03, 0x5        	BANKSEL	r0x1002
000807   1303     bcf     0x03, 0x6        
000808   00e8     movwf   0x68             	MOVWF	r0x1002
                                           ;	.line	37; "MODE_int.c"	PBD_tenuButtonId ButtonStateUP = PBD_enuGetButtonState(PBD_BUTTON_STEP_UP);
000809   3001     movlw   0x01             	MOVLW	0x01
00080a   118a     bcf     0x0a, 0x3        	PAGESEL	_PBD_enuGetButtonState
00080b   120a     bcf     0x0a, 0x4        
00080c   23e7     call    0x03e7           	CALL	_PBD_enuGetButtonState
00080d   158a     bsf     0x0a, 0x3        	PAGESEL	$
00080e   120a     bcf     0x0a, 0x4        
00080f   1683     bsf     0x03, 0x5        	BANKSEL	r0x1003
000810   1303     bcf     0x03, 0x6        
000811   00e9     movwf   0x69             	MOVWF	r0x1003
                                           ;	.line	38; "MODE_int.c"	PBD_tenuButtonId ButtonStateHazzard = PBD_enuGetButtonState(PBD_BUTTON_HAZZARD);
000812   3002     movlw   0x02             	MOVLW	0x02
000813   118a     bcf     0x0a, 0x3        	PAGESEL	_PBD_enuGetButtonState
000814   120a     bcf     0x0a, 0x4        
000815   23e7     call    0x03e7           	CALL	_PBD_enuGetButtonState
000816   158a     bsf     0x0a, 0x3        	PAGESEL	$
000817   120a     bcf     0x0a, 0x4        
000818   1683     bsf     0x03, 0x5        	BANKSEL	r0x1004
000819   1303     bcf     0x03, 0x6        
00081a   00ea     movwf   0x6a             	MOVWF	r0x1004
                                           ;;swapping arguments (AOP_TYPEs 1/3)
                                           ;;unsigned compare: left >= lit(0x4=4), size=1
                                           ;	.line	42; "MODE_int.c"	switch(ModeState)
00081b   3004     movlw   0x04             	MOVLW	0x04
00081c   1683     bsf     0x03, 0x5        	BANKSEL	_ModeState
00081d   1303     bcf     0x03, 0x6        
00081e   026b     subwf   0x6b, 0x0        	SUBWF	_ModeState,W
00081f   1803     btfsc   0x03, 0x0        	BTFSC	STATUS,0
000820   28f1     goto    0x00f1           	GOTO	_00146_DS_
                                           ;;genSkipc:3247: created from rifx:00000000047558B0
000821   3008     movlw   0x08             	MOVLW	HIGH(_00188_DS_)
000822   1283     bcf     0x03, 0x5        	BANKSEL	PCLATH
000823   1303     bcf     0x03, 0x6        
000824   008a     movwf   0x0a             	MOVWF	PCLATH
000825   302f     movlw   0x2f             	MOVLW	_00188_DS_
000826   1683     bsf     0x03, 0x5        	BANKSEL	_ModeState
000827   1303     bcf     0x03, 0x6        
000828   076b     addwf   0x6b, 0x0        	ADDWF	_ModeState,W
000829   1c03     btfss   0x03, 0x0        	BTFSS	STATUS,0
00082a   282e     goto    0x002e           	GOTO	_00001_DS_
00082b   1283     bcf     0x03, 0x5        	BANKSEL	PCLATH
00082c   1303     bcf     0x03, 0x6        
00082d   0a8a     incf    0x0a, 0x1        	INCF	PCLATH,F
                                           _00001_DS_
00082e   0082     movwf   0x02             	MOVWF	PCL
                                           _00188_DS_
00082f   2833     goto    0x0033           	GOTO	_00109_DS_
000830   2893     goto    0x0093           	GOTO	_00127_DS_
000831   2863     goto    0x0063           	GOTO	_00118_DS_
000832   28c3     goto    0x00c3           	GOTO	_00136_DS_
                                           _00109_DS_
                                           ;	.line	45; "MODE_int.c"	if(ButtonStateDown == PBD_PUSHED)
000833   1683     bsf     0x03, 0x5        	BANKSEL	r0x1002
000834   1303     bcf     0x03, 0x6        
000835   0868     movf    0x68, 0x0        	MOVF	r0x1002,W
000836   3a01     xorlw   0x01             	XORLW	0x01
000837   1d03     btfss   0x03, 0x2        	BTFSS	STATUS,2
000838   283e     goto    0x003e           	GOTO	_00116_DS_
                                           ;	.line	47; "MODE_int.c"	ModeState = LEFT_BLINK;
000839   3002     movlw   0x02             	MOVLW	0x02
00083a   1683     bsf     0x03, 0x5        	BANKSEL	_ModeState
00083b   1303     bcf     0x03, 0x6        
00083c   00eb     movwf   0x6b             	MOVWF	_ModeState
00083d   2856     goto    0x0056           	GOTO	_00117_DS_
                                           _00116_DS_
                                           ;	.line	49; "MODE_int.c"	else if(ButtonStateUP == PBD_PUSHED)
00083e   1683     bsf     0x03, 0x5        	BANKSEL	r0x1003
00083f   1303     bcf     0x03, 0x6        
000840   0869     movf    0x69, 0x0        	MOVF	r0x1003,W
000841   3a01     xorlw   0x01             	XORLW	0x01
000842   1d03     btfss   0x03, 0x2        	BTFSS	STATUS,2
000843   2849     goto    0x0049           	GOTO	_00113_DS_
                                           ;	.line	51; "MODE_int.c"	ModeState = RIGHT_BLINK;
000844   3001     movlw   0x01             	MOVLW	0x01
000845   1683     bsf     0x03, 0x5        	BANKSEL	_ModeState
000846   1303     bcf     0x03, 0x6        
000847   00eb     movwf   0x6b             	MOVWF	_ModeState
000848   2856     goto    0x0056           	GOTO	_00117_DS_
                                           _00113_DS_
                                           ;	.line	53; "MODE_int.c"	else if(ButtonStateHazzard == PBD_PUSHED)
000849   1683     bsf     0x03, 0x5        	BANKSEL	r0x1004
00084a   1303     bcf     0x03, 0x6        
00084b   086a     movf    0x6a, 0x0        	MOVF	r0x1004,W
00084c   3a01     xorlw   0x01             	XORLW	0x01
00084d   1d03     btfss   0x03, 0x2        	BTFSS	STATUS,2
00084e   2856     goto    0x0056           	GOTO	_00117_DS_
                                           ;	.line	55; "MODE_int.c"	PreviousState = IDLE;
00084f   1683     bsf     0x03, 0x5        	BANKSEL	_MODE_vidTask_PreviousState_1_18
000850   1303     bcf     0x03, 0x6        
000851   01ec     clrf    0x6c             	CLRF	_MODE_vidTask_PreviousState_1_18
                                           ;	.line	56; "MODE_int.c"	ModeState = HAZZARD_BLINK;
000852   3003     movlw   0x03             	MOVLW	0x03
000853   1683     bsf     0x03, 0x5        	BANKSEL	_ModeState
000854   1303     bcf     0x03, 0x6        
000855   00eb     movwf   0x6b             	MOVWF	_ModeState
                                           _00117_DS_
                                           ;	.line	62; "MODE_int.c"	HIF_vidSetMode(HIF_OFF_MODE);
000856   3000     movlw   0x00             	MOVLW	0x00
000857   158a     bsf     0x0a, 0x3        	PAGESEL	_HIF_vidSetMode
000858   120a     bcf     0x0a, 0x4        
000859   22ca     call    0x02ca           	CALL	_HIF_vidSetMode
00085a   158a     bsf     0x0a, 0x3        	PAGESEL	$
00085b   120a     bcf     0x0a, 0x4        
                                           ;	.line	63; "MODE_int.c"	TIF_vidSetMode(TIF_OFF_MODE);
00085c   3000     movlw   0x00             	MOVLW	0x00
00085d   158a     bsf     0x0a, 0x3        	PAGESEL	_TIF_vidSetMode
00085e   120a     bcf     0x0a, 0x4        
00085f   215f     call    0x015f           	CALL	_TIF_vidSetMode
000860   158a     bsf     0x0a, 0x3        	PAGESEL	$
000861   120a     bcf     0x0a, 0x4        
                                           ;	.line	65; "MODE_int.c"	break;
000862   28f1     goto    0x00f1           	GOTO	_00146_DS_
                                           _00118_DS_
                                           ;	.line	68; "MODE_int.c"	if(ButtonStateUP == PBD_PUSHED)
000863   1683     bsf     0x03, 0x5        	BANKSEL	r0x1003
000864   1303     bcf     0x03, 0x6        
000865   0869     movf    0x69, 0x0        	MOVF	r0x1003,W
000866   3a01     xorlw   0x01             	XORLW	0x01
000867   1d03     btfss   0x03, 0x2        	BTFSS	STATUS,2
000868   286d     goto    0x006d           	GOTO	_00125_DS_
                                           ;	.line	70; "MODE_int.c"	ModeState = IDLE;
000869   1683     bsf     0x03, 0x5        	BANKSEL	_ModeState
00086a   1303     bcf     0x03, 0x6        
00086b   01eb     clrf    0x6b             	CLRF	_ModeState
00086c   2886     goto    0x0086           	GOTO	_00126_DS_
                                           _00125_DS_
                                           ;	.line	72; "MODE_int.c"	else if(ButtonStateDown == PBD_PUSHED)
00086d   1683     bsf     0x03, 0x5        	BANKSEL	r0x1002
00086e   1303     bcf     0x03, 0x6        
00086f   0868     movf    0x68, 0x0        	MOVF	r0x1002,W
000870   3a01     xorlw   0x01             	XORLW	0x01
000871   1d03     btfss   0x03, 0x2        	BTFSS	STATUS,2
000872   2878     goto    0x0078           	GOTO	_00122_DS_
                                           ;	.line	74; "MODE_int.c"	ModeState = LEFT_BLINK;
000873   3002     movlw   0x02             	MOVLW	0x02
000874   1683     bsf     0x03, 0x5        	BANKSEL	_ModeState
000875   1303     bcf     0x03, 0x6        
000876   00eb     movwf   0x6b             	MOVWF	_ModeState
000877   2886     goto    0x0086           	GOTO	_00126_DS_
                                           _00122_DS_
                                           ;	.line	76; "MODE_int.c"	else if(ButtonStateHazzard == PBD_PUSHED)
000878   1683     bsf     0x03, 0x5        	BANKSEL	r0x1004
000879   1303     bcf     0x03, 0x6        
00087a   086a     movf    0x6a, 0x0        	MOVF	r0x1004,W
00087b   3a01     xorlw   0x01             	XORLW	0x01
00087c   1d03     btfss   0x03, 0x2        	BTFSS	STATUS,2
00087d   2886     goto    0x0086           	GOTO	_00126_DS_
                                           ;	.line	78; "MODE_int.c"	PreviousState = LEFT_BLINK;
00087e   3002     movlw   0x02             	MOVLW	0x02
00087f   1683     bsf     0x03, 0x5        	BANKSEL	_MODE_vidTask_PreviousState_1_18
000880   1303     bcf     0x03, 0x6        
000881   00ec     movwf   0x6c             	MOVWF	_MODE_vidTask_PreviousState_1_18
                                           ;	.line	79; "MODE_int.c"	ModeState = HAZZARD_BLINK;
000882   3003     movlw   0x03             	MOVLW	0x03
000883   1683     bsf     0x03, 0x5        	BANKSEL	_ModeState
000884   1303     bcf     0x03, 0x6        
000885   00eb     movwf   0x6b             	MOVWF	_ModeState
                                           _00126_DS_
                                           ;	.line	85; "MODE_int.c"	HIF_vidSetMode(HIF_OFF_MODE);
000886   3000     movlw   0x00             	MOVLW	0x00
000887   158a     bsf     0x0a, 0x3        	PAGESEL	_HIF_vidSetMode
000888   120a     bcf     0x0a, 0x4        
000889   22ca     call    0x02ca           	CALL	_HIF_vidSetMode
00088a   158a     bsf     0x0a, 0x3        	PAGESEL	$
00088b   120a     bcf     0x0a, 0x4        
                                           ;	.line	86; "MODE_int.c"	TIF_vidSetMode(TIF_LEFT_BLINK_MODE);
00088c   3002     movlw   0x02             	MOVLW	0x02
00088d   158a     bsf     0x0a, 0x3        	PAGESEL	_TIF_vidSetMode
00088e   120a     bcf     0x0a, 0x4        
00088f   215f     call    0x015f           	CALL	_TIF_vidSetMode
000890   158a     bsf     0x0a, 0x3        	PAGESEL	$
000891   120a     bcf     0x0a, 0x4        
                                           ;	.line	88; "MODE_int.c"	break;
000892   28f1     goto    0x00f1           	GOTO	_00146_DS_
                                           _00127_DS_
                                           ;	.line	90; "MODE_int.c"	if(ButtonStateUP == PBD_PUSHED)
000893   1683     bsf     0x03, 0x5        	BANKSEL	r0x1003
000894   1303     bcf     0x03, 0x6        
000895   0869     movf    0x69, 0x0        	MOVF	r0x1003,W
000896   3a01     xorlw   0x01             	XORLW	0x01
000897   1d03     btfss   0x03, 0x2        	BTFSS	STATUS,2
000898   289e     goto    0x009e           	GOTO	_00134_DS_
                                           ;	.line	92; "MODE_int.c"	ModeState = RIGHT_BLINK;
000899   3001     movlw   0x01             	MOVLW	0x01
00089a   1683     bsf     0x03, 0x5        	BANKSEL	_ModeState
00089b   1303     bcf     0x03, 0x6        
00089c   00eb     movwf   0x6b             	MOVWF	_ModeState
00089d   28b6     goto    0x00b6           	GOTO	_00135_DS_
                                           _00134_DS_
                                           ;	.line	94; "MODE_int.c"	else if(ButtonStateDown == PBD_PUSHED)
00089e   1683     bsf     0x03, 0x5        	BANKSEL	r0x1002
00089f   1303     bcf     0x03, 0x6        
0008a0   0868     movf    0x68, 0x0        	MOVF	r0x1002,W
0008a1   3a01     xorlw   0x01             	XORLW	0x01
0008a2   1d03     btfss   0x03, 0x2        	BTFSS	STATUS,2
0008a3   28a8     goto    0x00a8           	GOTO	_00131_DS_
                                           ;	.line	96; "MODE_int.c"	ModeState = IDLE;
0008a4   1683     bsf     0x03, 0x5        	BANKSEL	_ModeState
0008a5   1303     bcf     0x03, 0x6        
0008a6   01eb     clrf    0x6b             	CLRF	_ModeState
0008a7   28b6     goto    0x00b6           	GOTO	_00135_DS_
                                           _00131_DS_
                                           ;	.line	98; "MODE_int.c"	else if(ButtonStateHazzard == PBD_PUSHED)
0008a8   1683     bsf     0x03, 0x5        	BANKSEL	r0x1004
0008a9   1303     bcf     0x03, 0x6        
0008aa   086a     movf    0x6a, 0x0        	MOVF	r0x1004,W
0008ab   3a01     xorlw   0x01             	XORLW	0x01
0008ac   1d03     btfss   0x03, 0x2        	BTFSS	STATUS,2
0008ad   28b6     goto    0x00b6           	GOTO	_00135_DS_
                                           ;	.line	100; "MODE_int.c"	PreviousState = RIGHT_BLINK;
0008ae   3001     movlw   0x01             	MOVLW	0x01
0008af   1683     bsf     0x03, 0x5        	BANKSEL	_MODE_vidTask_PreviousState_1_18
0008b0   1303     bcf     0x03, 0x6        
0008b1   00ec     movwf   0x6c             	MOVWF	_MODE_vidTask_PreviousState_1_18
                                           ;	.line	101; "MODE_int.c"	ModeState = HAZZARD_BLINK;
0008b2   3003     movlw   0x03             	MOVLW	0x03
0008b3   1683     bsf     0x03, 0x5        	BANKSEL	_ModeState
0008b4   1303     bcf     0x03, 0x6        
0008b5   00eb     movwf   0x6b             	MOVWF	_ModeState
                                           _00135_DS_
                                           ;	.line	107; "MODE_int.c"	HIF_vidSetMode(HIF_OFF_MODE);
0008b6   3000     movlw   0x00             	MOVLW	0x00
0008b7   158a     bsf     0x0a, 0x3        	PAGESEL	_HIF_vidSetMode
0008b8   120a     bcf     0x0a, 0x4        
0008b9   22ca     call    0x02ca           	CALL	_HIF_vidSetMode
0008ba   158a     bsf     0x0a, 0x3        	PAGESEL	$
0008bb   120a     bcf     0x0a, 0x4        
                                           ;	.line	108; "MODE_int.c"	TIF_vidSetMode(TIF_RIGHT_BLINK_MODE);
0008bc   3001     movlw   0x01             	MOVLW	0x01
0008bd   158a     bsf     0x0a, 0x3        	PAGESEL	_TIF_vidSetMode
0008be   120a     bcf     0x0a, 0x4        
0008bf   215f     call    0x015f           	CALL	_TIF_vidSetMode
0008c0   158a     bsf     0x0a, 0x3        	PAGESEL	$
0008c1   120a     bcf     0x0a, 0x4        
                                           ;	.line	110; "MODE_int.c"	break;
0008c2   28f1     goto    0x00f1           	GOTO	_00146_DS_
                                           _00136_DS_
                                           ;	.line	112; "MODE_int.c"	if(ButtonStateUP == PBD_PUSHED)
0008c3   1683     bsf     0x03, 0x5        	BANKSEL	r0x1003
0008c4   1303     bcf     0x03, 0x6        
0008c5   0869     movf    0x69, 0x0        	MOVF	r0x1003,W
0008c6   3a01     xorlw   0x01             	XORLW	0x01
0008c7   1d03     btfss   0x03, 0x2        	BTFSS	STATUS,2
0008c8   28ce     goto    0x00ce           	GOTO	_00143_DS_
                                           ;	.line	114; "MODE_int.c"	ModeState = HAZZARD_BLINK;
0008c9   3003     movlw   0x03             	MOVLW	0x03
0008ca   1683     bsf     0x03, 0x5        	BANKSEL	_ModeState
0008cb   1303     bcf     0x03, 0x6        
0008cc   00eb     movwf   0x6b             	MOVWF	_ModeState
0008cd   28e5     goto    0x00e5           	GOTO	_00144_DS_
                                           _00143_DS_
                                           ;	.line	116; "MODE_int.c"	else if(ButtonStateDown == PBD_PUSHED)
0008ce   1683     bsf     0x03, 0x5        	BANKSEL	r0x1002
0008cf   1303     bcf     0x03, 0x6        
0008d0   0868     movf    0x68, 0x0        	MOVF	r0x1002,W
0008d1   3a01     xorlw   0x01             	XORLW	0x01
0008d2   1d03     btfss   0x03, 0x2        	BTFSS	STATUS,2
0008d3   28d9     goto    0x00d9           	GOTO	_00140_DS_
                                           ;	.line	118; "MODE_int.c"	ModeState = HAZZARD_BLINK;
0008d4   3003     movlw   0x03             	MOVLW	0x03
0008d5   1683     bsf     0x03, 0x5        	BANKSEL	_ModeState
0008d6   1303     bcf     0x03, 0x6        
0008d7   00eb     movwf   0x6b             	MOVWF	_ModeState
0008d8   28e5     goto    0x00e5           	GOTO	_00144_DS_
                                           _00140_DS_
                                           ;	.line	120; "MODE_int.c"	else if(ButtonStateHazzard == PBD_PUSHED)
0008d9   1683     bsf     0x03, 0x5        	BANKSEL	r0x1004
0008da   1303     bcf     0x03, 0x6        
0008db   086a     movf    0x6a, 0x0        	MOVF	r0x1004,W
0008dc   3a01     xorlw   0x01             	XORLW	0x01
0008dd   1d03     btfss   0x03, 0x2        	BTFSS	STATUS,2
0008de   28e5     goto    0x00e5           	GOTO	_00144_DS_
                                           ;	.line	122; "MODE_int.c"	ModeState = PreviousState;
0008df   1683     bsf     0x03, 0x5        	BANKSEL	_MODE_vidTask_PreviousState_1_18
0008e0   1303     bcf     0x03, 0x6        
0008e1   086c     movf    0x6c, 0x0        	MOVF	_MODE_vidTask_PreviousState_1_18,W
0008e2   1683     bsf     0x03, 0x5        	BANKSEL	_ModeState
0008e3   1303     bcf     0x03, 0x6        
0008e4   00eb     movwf   0x6b             	MOVWF	_ModeState
                                           _00144_DS_
                                           ;	.line	128; "MODE_int.c"	HIF_vidSetMode(HIF_ON_MODE);
0008e5   3001     movlw   0x01             	MOVLW	0x01
0008e6   158a     bsf     0x0a, 0x3        	PAGESEL	_HIF_vidSetMode
0008e7   120a     bcf     0x0a, 0x4        
0008e8   22ca     call    0x02ca           	CALL	_HIF_vidSetMode
0008e9   158a     bsf     0x0a, 0x3        	PAGESEL	$
0008ea   120a     bcf     0x0a, 0x4        
                                           ;	.line	129; "MODE_int.c"	TIF_vidSetMode(TIF_OFF_MODE);
0008eb   3000     movlw   0x00             	MOVLW	0x00
0008ec   158a     bsf     0x0a, 0x3        	PAGESEL	_TIF_vidSetMode
0008ed   120a     bcf     0x0a, 0x4        
0008ee   215f     call    0x015f           	CALL	_TIF_vidSetMode
0008ef   158a     bsf     0x0a, 0x3        	PAGESEL	$
0008f0   120a     bcf     0x0a, 0x4        
                                           _00146_DS_
                                           ;	.line	133; "MODE_int.c"	}
0008f1   0008     return                   	RETURN	
                                           ; exit point of _MODE_vidTask
                                           
                                           ;***
                                           ;  pBlock Stats: dbName = C
                                           ;***
                                           ;entry:  _MODE_vidInit	;Function start
                                           ; 2 exit points
                                           ;has an exit
                                           ;functions called:
                                           ;   _HIF_vidSetMode
                                           ;   _TIF_vidSetMode
                                           ;   _HIF_vidSetMode
                                           ;   _TIF_vidSetMode
                                           ;; Starting pCode block
                                           _MODE_vidInit	;Function start
                                           ; 2 exit points
                                           ;	.line	25; "MODE_int.c"	ModeState = IDLE;
0008f2   1683     bsf     0x03, 0x5        	BANKSEL	_ModeState
0008f3   1303     bcf     0x03, 0x6        
0008f4   01eb     clrf    0x6b             	CLRF	_ModeState
                                           ;	.line	29; "MODE_int.c"	HIF_vidSetMode(HIF_UNDEFINED_MODE);
0008f5   3002     movlw   0x02             	MOVLW	0x02
0008f6   158a     bsf     0x0a, 0x3        	PAGESEL	_HIF_vidSetMode
0008f7   120a     bcf     0x0a, 0x4        
0008f8   22ca     call    0x02ca           	CALL	_HIF_vidSetMode
0008f9   158a     bsf     0x0a, 0x3        	PAGESEL	$
0008fa   120a     bcf     0x0a, 0x4        
                                           ;	.line	30; "MODE_int.c"	TIF_vidSetMode(TIF_UNDEFINED_MODE);
0008fb   3003     movlw   0x03             	MOVLW	0x03
0008fc   158a     bsf     0x0a, 0x3        	PAGESEL	_TIF_vidSetMode
0008fd   120a     bcf     0x0a, 0x4        
0008fe   215f     call    0x015f           	CALL	_TIF_vidSetMode
0008ff   158a     bsf     0x0a, 0x3        	PAGESEL	$
000900   120a     bcf     0x0a, 0x4        
000901   0008     return                   	RETURN	
                                           ; exit point of _MODE_vidInit
                                           
                                           
                                           ;	code size estimation:
                                           ;	  134+   62 =   196 instructions (  516 byte)
                                           
                                           	end
                                           ;--------------------------------------------------------
                                           ; File Created by SDCC : free open source ANSI-C Compiler
                                           ; Version 3.5.0 #9253 (Jun 20 2015) (MINGW64)
                                           ; This file was generated Thu Nov 10 14:55:36 2022
                                           ;--------------------------------------------------------
                                           ; PIC port for the 14-bit core
                                           ;--------------------------------------------------------
                                           ;	.file	"pbd_cfg.c"
                                           	list	p=16f877a
                                           	radix dec
                                           	include "p16f877a.inc"
                                                   LIST
                                           
                                           ;==========================================================================
                                           ; Build date : Aug 07 2014
                                           ;  MPASM PIC16F877A processor include
                                           ; 
                                           ;  (c) Copyright 1999-2014 Microchip Technology, All rights reserved
                                           ;==========================================================================
                                           
                                                   NOLIST
                                           ;--------------------------------------------------------
                                           ; external declarations
                                           ;--------------------------------------------------------
                                           	extern	_DIO_u8ReadChannel
                                           	extern	_DIO_vidWriteChannel
                                           	extern	_DIO_vidWritePort
                                           	extern	_PBD_enuBtnChannelId
                                           
                                           	extern PSAVE
                                           	extern SSAVE
                                           	extern WSAVE
                                           	extern STK12
                                           	extern STK11
                                           	extern STK10
                                           	extern STK09
                                           	extern STK08
                                           	extern STK07
                                           	extern STK06
                                           	extern STK05
                                           	extern STK04
                                           	extern STK03
                                           	extern STK02
                                           	extern STK01
                                           	extern STK00
                                           ;--------------------------------------------------------
                                           ; global declarations
                                           ;--------------------------------------------------------
                                           	global	_PBD_enuBtnConfig
                                           
                                           ;--------------------------------------------------------
                                           ; global definitions
                                           ;--------------------------------------------------------
                                           ;--------------------------------------------------------
                                           ; absolute symbol definitions
                                           ;--------------------------------------------------------
                                           ;--------------------------------------------------------
                                           ; compiler-defined variables
                                           ;--------------------------------------------------------
                                           ;--------------------------------------------------------
                                           ; initialized data
                                           ;--------------------------------------------------------
                                           
                                           ID_pbd_cfg_0	code
                                           _PBD_enuBtnConfig
000c22   3407     retlw   0x07             	retlw 0x07
000c23   3401     retlw   0x01             	retlw 0x01
000c24   340a     retlw   0x0a             	retlw 0x0a
000c25   3408     retlw   0x08             	retlw 0x08
000c26   3401     retlw   0x01             	retlw 0x01
000c27   340a     retlw   0x0a             	retlw 0x0a
000c28   3409     retlw   0x09             	retlw 0x09
000c29   3401     retlw   0x01             	retlw 0x01
000c2a   3414     retlw   0x14             	retlw 0x14
                                           
                                           ;--------------------------------------------------------
                                           ; overlayable items in internal ram 
                                           ;--------------------------------------------------------
                                           ;	udata_ovr
                                           ;--------------------------------------------------------
                                           ; code
                                           ;--------------------------------------------------------
                                           code_pbd_cfg	code
                                           
                                           ;	code size estimation:
                                           ;	    0+    0 =     0 instructions (    0 byte)
                                           
                                           	end
                                           ;--------------------------------------------------------
                                           ; File Created by SDCC : free open source ANSI-C Compiler
                                           ; Version 3.5.0 #9253 (Jun 20 2015) (MINGW64)
                                           ; This file was generated Thu Nov 10 14:55:37 2022
                                           ;--------------------------------------------------------
                                           ; PIC port for the 14-bit core
                                           ;--------------------------------------------------------
                                           ;	.file	"pbd_prg.c"
                                           	list	p=16f877a
                                           	radix dec
                                           	include "p16f877a.inc"
                                                   LIST
                                           
                                           ;==========================================================================
                                           ; Build date : Aug 07 2014
                                           ;  MPASM PIC16F877A processor include
                                           ; 
                                           ;  (c) Copyright 1999-2014 Microchip Technology, All rights reserved
                                           ;==========================================================================
                                           
                                                   NOLIST
                                           ;--------------------------------------------------------
                                           ; external declarations
                                           ;--------------------------------------------------------
                                           	extern	_DIO_u8ReadChannel
                                           	extern	_DIO_vidWriteChannel
                                           	extern	_DIO_vidWritePort
                                           	extern	_PBD_enuBtnChannelId
                                           	extern	_PBD_enuBtnConfig
                                           	extern	__mulchar
                                           	extern	__gptrget1
                                           
                                           	extern PSAVE
                                           	extern SSAVE
                                           	extern WSAVE
                                           	extern STK12
                                           	extern STK11
                                           	extern STK10
                                           	extern STK09
                                           	extern STK08
                                           	extern STK07
                                           	extern STK06
                                           	extern STK05
                                           	extern STK04
                                           	extern STK03
                                           	extern STK02
                                           	extern STK01
                                           	extern STK00
                                           ;--------------------------------------------------------
                                           ; global declarations
                                           ;--------------------------------------------------------
                                           	global	_PBD_enuGetButtonState
                                           	global	_PBD_vidTask
                                           	global	_PBD_vidInit
                                           
                                           ;--------------------------------------------------------
                                           ; global definitions
                                           ;--------------------------------------------------------
                                           ;--------------------------------------------------------
                                           ; absolute symbol definitions
                                           ;--------------------------------------------------------
                                           ;--------------------------------------------------------
                                           ; compiler-defined variables
                                           ;--------------------------------------------------------
                                           UDL_pbd_prg_0	udata
                                           r0x1038	res	1
                                           r0x1039	res	1
                                           r0x103A	res	1
                                           r0x103B	res	1
                                           r0x103C	res	1
                                           r0x1037	res	1
                                           r0x1033	res	1
                                           r0x1034	res	1
                                           r0x1035	res	1
                                           r0x1036	res	1
                                           r0x102F	res	1
                                           r0x1030	res	1
                                           r0x1031	res	1
                                           r0x1032	res	1
                                           r0x1028	res	1
                                           r0x1029	res	1
                                           r0x102A	res	1
                                           r0x102B	res	1
                                           r0x102C	res	1
                                           r0x102D	res	1
                                           r0x102E	res	1
                                           r0x1022	res	1
                                           r0x1023	res	1
                                           r0x1024	res	1
                                           r0x1025	res	1
                                           r0x1026	res	1
                                           r0x1027	res	1
                                           r0x101B	res	1
                                           r0x101C	res	1
                                           r0x101D	res	1
                                           r0x101E	res	1
                                           r0x101F	res	1
                                           r0x1020	res	1
                                           r0x1021	res	1
                                           r0x1016	res	1
                                           r0x1017	res	1
                                           r0x1018	res	1
                                           r0x1019	res	1
                                           r0x100E	res	1
                                           r0x100F	res	1
                                           r0x1010	res	1
                                           r0x1011	res	1
                                           r0x1012	res	1
                                           r0x1013	res	1
                                           r0x1014	res	1
                                           r0x1009	res	1
                                           r0x100A	res	1
                                           r0x100B	res	1
                                           r0x100C	res	1
                                           _strBtnInfo	res	9
                                           ;--------------------------------------------------------
                                           ; initialized data
                                           ;--------------------------------------------------------
                                           ;--------------------------------------------------------
                                           ; overlayable items in internal ram 
                                           ;--------------------------------------------------------
                                           ;	udata_ovr
                                           ;--------------------------------------------------------
                                           ; code
                                           ;--------------------------------------------------------
                                           code_pbd_prg	code
                                           ;***
                                           ;  pBlock Stats: dbName = C
                                           ;***
                                           ;entry:  _vidReleaseState	;Function start
                                           ; 2 exit points
                                           ;has an exit
                                           ;functions called:
                                           ;   __mulchar
                                           ;   __gptrget1
                                           ;   _DIO_u8ReadChannel
                                           ;   __mulchar
                                           ;   __gptrget1
                                           ;   _DIO_u8ReadChannel
                                           ;7 compiler assigned registers:
                                           ;   r0x1009
                                           ;   STK00
                                           ;   r0x100A
                                           ;   r0x100B
                                           ;   r0x100C
                                           ;   STK01
                                           ;   r0x100D
                                           ;; Starting pCode block
                                           _vidReleaseState	;Function start
                                           ; 2 exit points
                                           ;	.line	341; "pbd_prg.c"	static void vidReleaseState(PBD_tenuButtonId enuBtnId)
000029   1283     bcf     0x03, 0x5        	BANKSEL	r0x1009
00002a   1303     bcf     0x03, 0x6        
00002b   00cd     movwf   0x4d             	MOVWF	r0x1009
                                           ;	.line	345; "pbd_prg.c"	u8BtnValue = DIO_u8ReadChannel(PBD_enuBtnConfig[enuBtnId].enuBtnChannelId);
00002c   3003     movlw   0x03             	MOVLW	0x03
00002d   00ff     movwf   0x7f             	MOVWF	STK00
00002e   084d     movf    0x4d, 0x0        	MOVF	r0x1009,W
00002f   158a     bsf     0x0a, 0x3        	PAGESEL	__mulchar
000030   120a     bcf     0x0a, 0x4        
000031   23c0     call    0x03c0           	CALL	__mulchar
000032   118a     bcf     0x0a, 0x3        	PAGESEL	$
000033   120a     bcf     0x0a, 0x4        
000034   1283     bcf     0x03, 0x5        	BANKSEL	r0x100A
000035   1303     bcf     0x03, 0x6        
000036   00ce     movwf   0x4e             	MOVWF	r0x100A
000037   01cf     clrf    0x4f             	CLRF	r0x100B
000038   084e     movf    0x4e, 0x0        	MOVF	r0x100A,W
000039   3e22     addlw   0x22             	ADDLW	(_PBD_enuBtnConfig + 0)
00003a   00cd     movwf   0x4d             	MOVWF	r0x1009
00003b   300c     movlw   0x0c             	MOVLW	high (_PBD_enuBtnConfig + 0)
00003c   00d0     movwf   0x50             	MOVWF	r0x100C
00003d   3000     movlw   0x00             	MOVLW	0x00
00003e   1803     btfsc   0x03, 0x0        	BTFSC	STATUS,0
00003f   0f4f     incfsz  0x4f, 0x0        	INCFSZ	r0x100B,W
000040   07d0     addwf   0x50, 0x1        	ADDWF	r0x100C,F
000041   084d     movf    0x4d, 0x0        	MOVF	r0x1009,W
000042   00fe     movwf   0x7e             	MOVWF	STK01
000043   0850     movf    0x50, 0x0        	MOVF	r0x100C,W
000044   00ff     movwf   0x7f             	MOVWF	STK00
000045   3080     movlw   0x80             	MOVLW	0x80
000046   118a     bcf     0x0a, 0x3        	PAGESEL	__gptrget1
000047   120a     bcf     0x0a, 0x4        
000048   2796     call    0x0796           	CALL	__gptrget1
000049   118a     bcf     0x0a, 0x3        	PAGESEL	$
00004a   120a     bcf     0x0a, 0x4        
                                           ;;1	MOVWF	r0x100D
00004b   118a     bcf     0x0a, 0x3        	PAGESEL	_DIO_u8ReadChannel
00004c   120a     bcf     0x0a, 0x4        
00004d   25cd     call    0x05cd           	CALL	_DIO_u8ReadChannel
00004e   118a     bcf     0x0a, 0x3        	PAGESEL	$
00004f   120a     bcf     0x0a, 0x4        
000050   1283     bcf     0x03, 0x5        	BANKSEL	r0x1009
000051   1303     bcf     0x03, 0x6        
000052   00cd     movwf   0x4d             	MOVWF	r0x1009
                                           ;	.line	347; "pbd_prg.c"	if(u8BtnValue == PBD_PUSH_LEVEL)
000053   084d     movf    0x4d, 0x0        	MOVF	r0x1009,W
000054   1d03     btfss   0x03, 0x2        	BTFSS	STATUS,2
000055   2881     goto    0x0081           	GOTO	_00190_DS_
                                           ;	.line	349; "pbd_prg.c"	strBtnInfo[enuBtnId].u8DebounceCntr = BTY_u8ZERO;
000056   084e     movf    0x4e, 0x0        	MOVF	r0x100A,W
000057   3e51     addlw   0x51             	ADDLW	(_strBtnInfo + 0)
000058   00ce     movwf   0x4e             	MOVWF	r0x100A
000059   084f     movf    0x4f, 0x0        	MOVF	r0x100B,W
00005a   1803     btfsc   0x03, 0x0        	BTFSC	STATUS,0
00005b   0f4f     incfsz  0x4f, 0x0        	INCFSZ	r0x100B,W
00005c   3e00     addlw   0x00             	ADDLW	high (_strBtnInfo + 0)
00005d   00cf     movwf   0x4f             	MOVWF	r0x100B
00005e   3001     movlw   0x01             	MOVLW	0x01
00005f   074e     addwf   0x4e, 0x0        	ADDWF	r0x100A,W
000060   00cd     movwf   0x4d             	MOVWF	r0x1009
000061   01d0     clrf    0x50             	CLRF	r0x100C
000062   0dd0     rlf     0x50, 0x1        	RLF	r0x100C,F
000063   084f     movf    0x4f, 0x0        	MOVF	r0x100B,W
000064   07d0     addwf   0x50, 0x1        	ADDWF	r0x100C,F
000065   084d     movf    0x4d, 0x0        	MOVF	r0x1009,W
000066   1283     bcf     0x03, 0x5        	BANKSEL	FSR
000067   1303     bcf     0x03, 0x6        
000068   0084     movwf   0x04             	MOVWF	FSR
000069   1383     bcf     0x03, 0x7        	BCF	STATUS,7
00006a   1283     bcf     0x03, 0x5        	BANKSEL	r0x100C
00006b   1303     bcf     0x03, 0x6        
00006c   1850     btfsc   0x50, 0x0        	BTFSC	r0x100C,0
00006d   1783     bsf     0x03, 0x7        	BSF	STATUS,7
00006e   3000     movlw   0x00             	MOVLW	0x00
00006f   1283     bcf     0x03, 0x5        	BANKSEL	INDF
000070   1303     bcf     0x03, 0x6        
000071   0080     movwf   0x00             	MOVWF	INDF
                                           ;	.line	350; "pbd_prg.c"	strBtnInfo[enuBtnId].enuBtnState    = PBD_PRE_PUSH;
000072   1283     bcf     0x03, 0x5        	BANKSEL	r0x100A
000073   1303     bcf     0x03, 0x6        
000074   084e     movf    0x4e, 0x0        	MOVF	r0x100A,W
000075   1283     bcf     0x03, 0x5        	BANKSEL	FSR
000076   1303     bcf     0x03, 0x6        
000077   0084     movwf   0x04             	MOVWF	FSR
000078   1383     bcf     0x03, 0x7        	BCF	STATUS,7
000079   1283     bcf     0x03, 0x5        	BANKSEL	r0x100B
00007a   1303     bcf     0x03, 0x6        
00007b   184f     btfsc   0x4f, 0x0        	BTFSC	r0x100B,0
00007c   1783     bsf     0x03, 0x7        	BSF	STATUS,7
00007d   3000     movlw   0x00             	MOVLW	0x00
00007e   1283     bcf     0x03, 0x5        	BANKSEL	INDF
00007f   1303     bcf     0x03, 0x6        
000080   0080     movwf   0x00             	MOVWF	INDF
                                           _00190_DS_
000081   0008     return                   	RETURN	
                                           ; exit point of _vidReleaseState
                                           
                                           ;***
                                           ;  pBlock Stats: dbName = C
                                           ;***
                                           ;entry:  _vidPreReleaseState	;Function start
                                           ; 2 exit points
                                           ;has an exit
                                           ;functions called:
                                           ;   __mulchar
                                           ;   __gptrget1
                                           ;   _DIO_u8ReadChannel
                                           ;   __gptrget1
                                           ;   __mulchar
                                           ;   __gptrget1
                                           ;   _DIO_u8ReadChannel
                                           ;   __gptrget1
                                           ;10 compiler assigned registers:
                                           ;   r0x100E
                                           ;   STK00
                                           ;   r0x100F
                                           ;   r0x1010
                                           ;   r0x1011
                                           ;   STK01
                                           ;   r0x1012
                                           ;   r0x1013
                                           ;   r0x1014
                                           ;   r0x1015
                                           ;; Starting pCode block
                                           _vidPreReleaseState	;Function start
                                           ; 2 exit points
                                           ;	.line	309; "pbd_prg.c"	static void vidPreReleaseState(PBD_tenuButtonId enuBtnId)
000082   1283     bcf     0x03, 0x5        	BANKSEL	r0x100E
000083   1303     bcf     0x03, 0x6        
000084   00c6     movwf   0x46             	MOVWF	r0x100E
                                           ;	.line	313; "pbd_prg.c"	u8BtnValue = DIO_u8ReadChannel(PBD_enuBtnConfig[enuBtnId].enuBtnChannelId);
000085   3003     movlw   0x03             	MOVLW	0x03
000086   00ff     movwf   0x7f             	MOVWF	STK00
000087   0846     movf    0x46, 0x0        	MOVF	r0x100E,W
000088   158a     bsf     0x0a, 0x3        	PAGESEL	__mulchar
000089   120a     bcf     0x0a, 0x4        
00008a   23c0     call    0x03c0           	CALL	__mulchar
00008b   118a     bcf     0x0a, 0x3        	PAGESEL	$
00008c   120a     bcf     0x0a, 0x4        
00008d   1283     bcf     0x03, 0x5        	BANKSEL	r0x100F
00008e   1303     bcf     0x03, 0x6        
00008f   00c7     movwf   0x47             	MOVWF	r0x100F
000090   01c8     clrf    0x48             	CLRF	r0x1010
000091   0847     movf    0x47, 0x0        	MOVF	r0x100F,W
000092   3e22     addlw   0x22             	ADDLW	(_PBD_enuBtnConfig + 0)
000093   00c6     movwf   0x46             	MOVWF	r0x100E
000094   300c     movlw   0x0c             	MOVLW	high (_PBD_enuBtnConfig + 0)
000095   00c9     movwf   0x49             	MOVWF	r0x1011
000096   3000     movlw   0x00             	MOVLW	0x00
000097   1803     btfsc   0x03, 0x0        	BTFSC	STATUS,0
000098   0f48     incfsz  0x48, 0x0        	INCFSZ	r0x1010,W
000099   07c9     addwf   0x49, 0x1        	ADDWF	r0x1011,F
00009a   0846     movf    0x46, 0x0        	MOVF	r0x100E,W
00009b   00fe     movwf   0x7e             	MOVWF	STK01
00009c   0849     movf    0x49, 0x0        	MOVF	r0x1011,W
00009d   00ff     movwf   0x7f             	MOVWF	STK00
00009e   3080     movlw   0x80             	MOVLW	0x80
00009f   118a     bcf     0x0a, 0x3        	PAGESEL	__gptrget1
0000a0   120a     bcf     0x0a, 0x4        
0000a1   2796     call    0x0796           	CALL	__gptrget1
0000a2   118a     bcf     0x0a, 0x3        	PAGESEL	$
0000a3   120a     bcf     0x0a, 0x4        
0000a4   1283     bcf     0x03, 0x5        	BANKSEL	r0x1012
0000a5   1303     bcf     0x03, 0x6        
0000a6   00ca     movwf   0x4a             	MOVWF	r0x1012
0000a7   118a     bcf     0x0a, 0x3        	PAGESEL	_DIO_u8ReadChannel
0000a8   120a     bcf     0x0a, 0x4        
0000a9   25cd     call    0x05cd           	CALL	_DIO_u8ReadChannel
0000aa   118a     bcf     0x0a, 0x3        	PAGESEL	$
0000ab   120a     bcf     0x0a, 0x4        
                                           ;	.line	315; "pbd_prg.c"	if(u8BtnValue == PBD_RELEASE_LEVEL)
0000ac   1283     bcf     0x03, 0x5        	BANKSEL	r0x100E
0000ad   1303     bcf     0x03, 0x6        
0000ae   00c6     movwf   0x46             	MOVWF	r0x100E
0000af   3a01     xorlw   0x01             	XORLW	0x01
0000b0   1d03     btfss   0x03, 0x2        	BTFSS	STATUS,2
0000b1   290a     goto    0x010a           	GOTO	_00181_DS_
                                           ;	.line	317; "pbd_prg.c"	strBtnInfo[enuBtnId].u8DebounceCntr++;
0000b2   0847     movf    0x47, 0x0        	MOVF	r0x100F,W
0000b3   3e51     addlw   0x51             	ADDLW	(_strBtnInfo + 0)
0000b4   00c6     movwf   0x46             	MOVWF	r0x100E
0000b5   3000     movlw   0x00             	MOVLW	high (_strBtnInfo + 0)
0000b6   00c9     movwf   0x49             	MOVWF	r0x1011
0000b7   0848     movf    0x48, 0x0        	MOVF	r0x1010,W
0000b8   1803     btfsc   0x03, 0x0        	BTFSC	STATUS,0
0000b9   0f48     incfsz  0x48, 0x0        	INCFSZ	r0x1010,W
0000ba   07c9     addwf   0x49, 0x1        	ADDWF	r0x1011,F
0000bb   3001     movlw   0x01             	MOVLW	0x01
0000bc   0746     addwf   0x46, 0x0        	ADDWF	r0x100E,W
0000bd   00ca     movwf   0x4a             	MOVWF	r0x1012
0000be   01cb     clrf    0x4b             	CLRF	r0x1013
0000bf   0dcb     rlf     0x4b, 0x1        	RLF	r0x1013,F
0000c0   0849     movf    0x49, 0x0        	MOVF	r0x1011,W
0000c1   07cb     addwf   0x4b, 0x1        	ADDWF	r0x1013,F
0000c2   084a     movf    0x4a, 0x0        	MOVF	r0x1012,W
0000c3   1283     bcf     0x03, 0x5        	BANKSEL	FSR
0000c4   1303     bcf     0x03, 0x6        
0000c5   0084     movwf   0x04             	MOVWF	FSR
0000c6   1383     bcf     0x03, 0x7        	BCF	STATUS,7
0000c7   1283     bcf     0x03, 0x5        	BANKSEL	r0x1013
0000c8   1303     bcf     0x03, 0x6        
0000c9   184b     btfsc   0x4b, 0x0        	BTFSC	r0x1013,0
0000ca   1783     bsf     0x03, 0x7        	BSF	STATUS,7
0000cb   1283     bcf     0x03, 0x5        	BANKSEL	INDF
0000cc   1303     bcf     0x03, 0x6        
0000cd   0800     movf    0x00, 0x0        	MOVF	INDF,W
0000ce   1283     bcf     0x03, 0x5        	BANKSEL	r0x1014
0000cf   1303     bcf     0x03, 0x6        
0000d0   00cc     movwf   0x4c             	MOVWF	r0x1014
0000d1   0acc     incf    0x4c, 0x1        	INCF	r0x1014,F
0000d2   084a     movf    0x4a, 0x0        	MOVF	r0x1012,W
0000d3   1283     bcf     0x03, 0x5        	BANKSEL	FSR
0000d4   1303     bcf     0x03, 0x6        
0000d5   0084     movwf   0x04             	MOVWF	FSR
0000d6   1383     bcf     0x03, 0x7        	BCF	STATUS,7
0000d7   1283     bcf     0x03, 0x5        	BANKSEL	r0x1013
0000d8   1303     bcf     0x03, 0x6        
0000d9   184b     btfsc   0x4b, 0x0        	BTFSC	r0x1013,0
0000da   1783     bsf     0x03, 0x7        	BSF	STATUS,7
0000db   084c     movf    0x4c, 0x0        	MOVF	r0x1014,W
0000dc   1283     bcf     0x03, 0x5        	BANKSEL	INDF
0000dd   1303     bcf     0x03, 0x6        
0000de   0080     movwf   0x00             	MOVWF	INDF
                                           ;	.line	320; "pbd_prg.c"	PBD_enuBtnConfig[enuBtnId].u8DebounceThreshold)
0000df   1283     bcf     0x03, 0x5        	BANKSEL	r0x100F
0000e0   1303     bcf     0x03, 0x6        
0000e1   0847     movf    0x47, 0x0        	MOVF	r0x100F,W
0000e2   3e22     addlw   0x22             	ADDLW	(_PBD_enuBtnConfig + 0)
0000e3   00ca     movwf   0x4a             	MOVWF	r0x1012
0000e4   300c     movlw   0x0c             	MOVLW	high (_PBD_enuBtnConfig + 0)
0000e5   00cb     movwf   0x4b             	MOVWF	r0x1013
0000e6   0848     movf    0x48, 0x0        	MOVF	r0x1010,W
0000e7   1803     btfsc   0x03, 0x0        	BTFSC	STATUS,0
0000e8   0f48     incfsz  0x48, 0x0        	INCFSZ	r0x1010,W
0000e9   07cb     addwf   0x4b, 0x1        	ADDWF	r0x1013,F
0000ea   0aca     incf    0x4a, 0x1        	INCF	r0x1012,F
0000eb   1903     btfsc   0x03, 0x2        	BTFSC	STATUS,2
0000ec   0acb     incf    0x4b, 0x1        	INCF	r0x1013,F
0000ed   084a     movf    0x4a, 0x0        	MOVF	r0x1012,W
0000ee   00fe     movwf   0x7e             	MOVWF	STK01
0000ef   084b     movf    0x4b, 0x0        	MOVF	r0x1013,W
0000f0   00ff     movwf   0x7f             	MOVWF	STK00
0000f1   3080     movlw   0x80             	MOVLW	0x80
0000f2   118a     bcf     0x0a, 0x3        	PAGESEL	__gptrget1
0000f3   120a     bcf     0x0a, 0x4        
0000f4   2796     call    0x0796           	CALL	__gptrget1
0000f5   118a     bcf     0x0a, 0x3        	PAGESEL	$
0000f6   120a     bcf     0x0a, 0x4        
                                           ;;1	MOVWF	r0x1015
0000f7   1283     bcf     0x03, 0x5        	BANKSEL	r0x1014
0000f8   1303     bcf     0x03, 0x6        
0000f9   064c     xorwf   0x4c, 0x0        	XORWF	r0x1014,W
0000fa   1d03     btfss   0x03, 0x2        	BTFSS	STATUS,2
0000fb   2937     goto    0x0137           	GOTO	_00183_DS_
                                           ;	.line	322; "pbd_prg.c"	strBtnInfo[enuBtnId].enuBtnState = PBD_RELEASED;
0000fc   0846     movf    0x46, 0x0        	MOVF	r0x100E,W
0000fd   1283     bcf     0x03, 0x5        	BANKSEL	FSR
0000fe   1303     bcf     0x03, 0x6        
0000ff   0084     movwf   0x04             	MOVWF	FSR
000100   1383     bcf     0x03, 0x7        	BCF	STATUS,7
000101   1283     bcf     0x03, 0x5        	BANKSEL	r0x1011
000102   1303     bcf     0x03, 0x6        
000103   1849     btfsc   0x49, 0x0        	BTFSC	r0x1011,0
000104   1783     bsf     0x03, 0x7        	BSF	STATUS,7
000105   3005     movlw   0x05             	MOVLW	0x05
000106   1283     bcf     0x03, 0x5        	BANKSEL	INDF
000107   1303     bcf     0x03, 0x6        
000108   0080     movwf   0x00             	MOVWF	INDF
000109   2937     goto    0x0137           	GOTO	_00183_DS_
                                           _00181_DS_
                                           ;	.line	331; "pbd_prg.c"	strBtnInfo[enuBtnId].u8DebounceCntr = BTY_u8ZERO;
00010a   1283     bcf     0x03, 0x5        	BANKSEL	r0x100F
00010b   1303     bcf     0x03, 0x6        
00010c   0847     movf    0x47, 0x0        	MOVF	r0x100F,W
00010d   3e51     addlw   0x51             	ADDLW	(_strBtnInfo + 0)
00010e   00c7     movwf   0x47             	MOVWF	r0x100F
00010f   0848     movf    0x48, 0x0        	MOVF	r0x1010,W
000110   1803     btfsc   0x03, 0x0        	BTFSC	STATUS,0
000111   0f48     incfsz  0x48, 0x0        	INCFSZ	r0x1010,W
000112   3e00     addlw   0x00             	ADDLW	high (_strBtnInfo + 0)
000113   00c8     movwf   0x48             	MOVWF	r0x1010
000114   3001     movlw   0x01             	MOVLW	0x01
000115   0747     addwf   0x47, 0x0        	ADDWF	r0x100F,W
000116   00c6     movwf   0x46             	MOVWF	r0x100E
000117   01c9     clrf    0x49             	CLRF	r0x1011
000118   0dc9     rlf     0x49, 0x1        	RLF	r0x1011,F
000119   0848     movf    0x48, 0x0        	MOVF	r0x1010,W
00011a   07c9     addwf   0x49, 0x1        	ADDWF	r0x1011,F
00011b   0846     movf    0x46, 0x0        	MOVF	r0x100E,W
00011c   1283     bcf     0x03, 0x5        	BANKSEL	FSR
00011d   1303     bcf     0x03, 0x6        
00011e   0084     movwf   0x04             	MOVWF	FSR
00011f   1383     bcf     0x03, 0x7        	BCF	STATUS,7
000120   1283     bcf     0x03, 0x5        	BANKSEL	r0x1011
000121   1303     bcf     0x03, 0x6        
000122   1849     btfsc   0x49, 0x0        	BTFSC	r0x1011,0
000123   1783     bsf     0x03, 0x7        	BSF	STATUS,7
000124   3000     movlw   0x00             	MOVLW	0x00
000125   1283     bcf     0x03, 0x5        	BANKSEL	INDF
000126   1303     bcf     0x03, 0x6        
000127   0080     movwf   0x00             	MOVWF	INDF
                                           ;	.line	332; "pbd_prg.c"	strBtnInfo[enuBtnId].enuBtnState    = PBD_PRE_PUSH;
000128   1283     bcf     0x03, 0x5        	BANKSEL	r0x100F
000129   1303     bcf     0x03, 0x6        
00012a   0847     movf    0x47, 0x0        	MOVF	r0x100F,W
00012b   1283     bcf     0x03, 0x5        	BANKSEL	FSR
00012c   1303     bcf     0x03, 0x6        
00012d   0084     movwf   0x04             	MOVWF	FSR
00012e   1383     bcf     0x03, 0x7        	BCF	STATUS,7
00012f   1283     bcf     0x03, 0x5        	BANKSEL	r0x1010
000130   1303     bcf     0x03, 0x6        
000131   1848     btfsc   0x48, 0x0        	BTFSC	r0x1010,0
000132   1783     bsf     0x03, 0x7        	BSF	STATUS,7
000133   3000     movlw   0x00             	MOVLW	0x00
000134   1283     bcf     0x03, 0x5        	BANKSEL	INDF
000135   1303     bcf     0x03, 0x6        
000136   0080     movwf   0x00             	MOVWF	INDF
                                           _00183_DS_
000137   0008     return                   	RETURN	
                                           ; exit point of _vidPreReleaseState
                                           
                                           ;***
                                           ;  pBlock Stats: dbName = C
                                           ;***
                                           ;entry:  _vidHoldState	;Function start
                                           ; 2 exit points
                                           ;has an exit
                                           ;functions called:
                                           ;   __mulchar
                                           ;   __gptrget1
                                           ;   _DIO_u8ReadChannel
                                           ;   __mulchar
                                           ;   __gptrget1
                                           ;   _DIO_u8ReadChannel
                                           ;7 compiler assigned registers:
                                           ;   r0x1016
                                           ;   STK00
                                           ;   r0x1017
                                           ;   r0x1018
                                           ;   r0x1019
                                           ;   STK01
                                           ;   r0x101A
                                           ;; Starting pCode block
                                           _vidHoldState	;Function start
                                           ; 2 exit points
                                           ;	.line	287; "pbd_prg.c"	static void vidHoldState(PBD_tenuButtonId enuBtnId)
000138   1283     bcf     0x03, 0x5        	BANKSEL	r0x1016
000139   1303     bcf     0x03, 0x6        
00013a   00c2     movwf   0x42             	MOVWF	r0x1016
                                           ;	.line	291; "pbd_prg.c"	u8BtnValue = DIO_u8ReadChannel(PBD_enuBtnConfig[enuBtnId].enuBtnChannelId);
00013b   3003     movlw   0x03             	MOVLW	0x03
00013c   00ff     movwf   0x7f             	MOVWF	STK00
00013d   0842     movf    0x42, 0x0        	MOVF	r0x1016,W
00013e   158a     bsf     0x0a, 0x3        	PAGESEL	__mulchar
00013f   120a     bcf     0x0a, 0x4        
000140   23c0     call    0x03c0           	CALL	__mulchar
000141   118a     bcf     0x0a, 0x3        	PAGESEL	$
000142   120a     bcf     0x0a, 0x4        
000143   1283     bcf     0x03, 0x5        	BANKSEL	r0x1017
000144   1303     bcf     0x03, 0x6        
000145   00c3     movwf   0x43             	MOVWF	r0x1017
000146   01c4     clrf    0x44             	CLRF	r0x1018
000147   0843     movf    0x43, 0x0        	MOVF	r0x1017,W
000148   3e22     addlw   0x22             	ADDLW	(_PBD_enuBtnConfig + 0)
000149   00c2     movwf   0x42             	MOVWF	r0x1016
00014a   300c     movlw   0x0c             	MOVLW	high (_PBD_enuBtnConfig + 0)
00014b   00c5     movwf   0x45             	MOVWF	r0x1019
00014c   3000     movlw   0x00             	MOVLW	0x00
00014d   1803     btfsc   0x03, 0x0        	BTFSC	STATUS,0
00014e   0f44     incfsz  0x44, 0x0        	INCFSZ	r0x1018,W
00014f   07c5     addwf   0x45, 0x1        	ADDWF	r0x1019,F
000150   0842     movf    0x42, 0x0        	MOVF	r0x1016,W
000151   00fe     movwf   0x7e             	MOVWF	STK01
000152   0845     movf    0x45, 0x0        	MOVF	r0x1019,W
000153   00ff     movwf   0x7f             	MOVWF	STK00
000154   3080     movlw   0x80             	MOVLW	0x80
000155   118a     bcf     0x0a, 0x3        	PAGESEL	__gptrget1
000156   120a     bcf     0x0a, 0x4        
000157   2796     call    0x0796           	CALL	__gptrget1
000158   118a     bcf     0x0a, 0x3        	PAGESEL	$
000159   120a     bcf     0x0a, 0x4        
                                           ;;1	MOVWF	r0x101A
00015a   118a     bcf     0x0a, 0x3        	PAGESEL	_DIO_u8ReadChannel
00015b   120a     bcf     0x0a, 0x4        
00015c   25cd     call    0x05cd           	CALL	_DIO_u8ReadChannel
00015d   118a     bcf     0x0a, 0x3        	PAGESEL	$
00015e   120a     bcf     0x0a, 0x4        
                                           ;	.line	293; "pbd_prg.c"	if(u8BtnValue == PBD_RELEASE_LEVEL)
00015f   1283     bcf     0x03, 0x5        	BANKSEL	r0x1016
000160   1303     bcf     0x03, 0x6        
000161   00c2     movwf   0x42             	MOVWF	r0x1016
000162   3a01     xorlw   0x01             	XORLW	0x01
000163   1d03     btfss   0x03, 0x2        	BTFSS	STATUS,2
000164   2990     goto    0x0190           	GOTO	_00173_DS_
                                           ;	.line	295; "pbd_prg.c"	strBtnInfo[enuBtnId].u8DebounceCntr = BTY_u8ZERO;
000165   0843     movf    0x43, 0x0        	MOVF	r0x1017,W
000166   3e51     addlw   0x51             	ADDLW	(_strBtnInfo + 0)
000167   00c3     movwf   0x43             	MOVWF	r0x1017
000168   0844     movf    0x44, 0x0        	MOVF	r0x1018,W
000169   1803     btfsc   0x03, 0x0        	BTFSC	STATUS,0
00016a   0f44     incfsz  0x44, 0x0        	INCFSZ	r0x1018,W
00016b   3e00     addlw   0x00             	ADDLW	high (_strBtnInfo + 0)
00016c   00c4     movwf   0x44             	MOVWF	r0x1018
00016d   3001     movlw   0x01             	MOVLW	0x01
00016e   0743     addwf   0x43, 0x0        	ADDWF	r0x1017,W
00016f   00c2     movwf   0x42             	MOVWF	r0x1016
000170   01c5     clrf    0x45             	CLRF	r0x1019
000171   0dc5     rlf     0x45, 0x1        	RLF	r0x1019,F
000172   0844     movf    0x44, 0x0        	MOVF	r0x1018,W
000173   07c5     addwf   0x45, 0x1        	ADDWF	r0x1019,F
000174   0842     movf    0x42, 0x0        	MOVF	r0x1016,W
000175   1283     bcf     0x03, 0x5        	BANKSEL	FSR
000176   1303     bcf     0x03, 0x6        
000177   0084     movwf   0x04             	MOVWF	FSR
000178   1383     bcf     0x03, 0x7        	BCF	STATUS,7
000179   1283     bcf     0x03, 0x5        	BANKSEL	r0x1019
00017a   1303     bcf     0x03, 0x6        
00017b   1845     btfsc   0x45, 0x0        	BTFSC	r0x1019,0
00017c   1783     bsf     0x03, 0x7        	BSF	STATUS,7
00017d   3000     movlw   0x00             	MOVLW	0x00
00017e   1283     bcf     0x03, 0x5        	BANKSEL	INDF
00017f   1303     bcf     0x03, 0x6        
000180   0080     movwf   0x00             	MOVWF	INDF
                                           ;	.line	296; "pbd_prg.c"	strBtnInfo[enuBtnId].enuBtnState    = PBD_PRE_RELEASE;
000181   1283     bcf     0x03, 0x5        	BANKSEL	r0x1017
000182   1303     bcf     0x03, 0x6        
000183   0843     movf    0x43, 0x0        	MOVF	r0x1017,W
000184   1283     bcf     0x03, 0x5        	BANKSEL	FSR
000185   1303     bcf     0x03, 0x6        
000186   0084     movwf   0x04             	MOVWF	FSR
000187   1383     bcf     0x03, 0x7        	BCF	STATUS,7
000188   1283     bcf     0x03, 0x5        	BANKSEL	r0x1018
000189   1303     bcf     0x03, 0x6        
00018a   1844     btfsc   0x44, 0x0        	BTFSC	r0x1018,0
00018b   1783     bsf     0x03, 0x7        	BSF	STATUS,7
00018c   3004     movlw   0x04             	MOVLW	0x04
00018d   1283     bcf     0x03, 0x5        	BANKSEL	INDF
00018e   1303     bcf     0x03, 0x6        
00018f   0080     movwf   0x00             	MOVWF	INDF
                                           _00173_DS_
000190   0008     return                   	RETURN	
                                           ; exit point of _vidHoldState
                                           
                                           ;***
                                           ;  pBlock Stats: dbName = C
                                           ;***
                                           ;entry:  _vidPreHoldState	;Function start
                                           ; 2 exit points
                                           ;has an exit
                                           ;functions called:
                                           ;   __mulchar
                                           ;   __gptrget1
                                           ;   _DIO_u8ReadChannel
                                           ;   __gptrget1
                                           ;   __mulchar
                                           ;   __gptrget1
                                           ;   _DIO_u8ReadChannel
                                           ;   __gptrget1
                                           ;9 compiler assigned registers:
                                           ;   r0x101B
                                           ;   STK00
                                           ;   r0x101C
                                           ;   r0x101D
                                           ;   r0x101E
                                           ;   STK01
                                           ;   r0x101F
                                           ;   r0x1020
                                           ;   r0x1021
                                           ;; Starting pCode block
                                           _vidPreHoldState	;Function start
                                           ; 2 exit points
                                           ;	.line	256; "pbd_prg.c"	static void vidPreHoldState(PBD_tenuButtonId enuBtnId)
000191   1283     bcf     0x03, 0x5        	BANKSEL	r0x101B
000192   1303     bcf     0x03, 0x6        
000193   00bb     movwf   0x3b             	MOVWF	r0x101B
                                           ;	.line	260; "pbd_prg.c"	u8BtnValue = DIO_u8ReadChannel(PBD_enuBtnConfig[enuBtnId].enuBtnChannelId);
000194   3003     movlw   0x03             	MOVLW	0x03
000195   00ff     movwf   0x7f             	MOVWF	STK00
000196   083b     movf    0x3b, 0x0        	MOVF	r0x101B,W
000197   158a     bsf     0x0a, 0x3        	PAGESEL	__mulchar
000198   120a     bcf     0x0a, 0x4        
000199   23c0     call    0x03c0           	CALL	__mulchar
00019a   118a     bcf     0x0a, 0x3        	PAGESEL	$
00019b   120a     bcf     0x0a, 0x4        
00019c   1283     bcf     0x03, 0x5        	BANKSEL	r0x101C
00019d   1303     bcf     0x03, 0x6        
00019e   00bc     movwf   0x3c             	MOVWF	r0x101C
00019f   01bd     clrf    0x3d             	CLRF	r0x101D
0001a0   083c     movf    0x3c, 0x0        	MOVF	r0x101C,W
0001a1   3e22     addlw   0x22             	ADDLW	(_PBD_enuBtnConfig + 0)
0001a2   00bb     movwf   0x3b             	MOVWF	r0x101B
0001a3   300c     movlw   0x0c             	MOVLW	high (_PBD_enuBtnConfig + 0)
0001a4   00be     movwf   0x3e             	MOVWF	r0x101E
0001a5   3000     movlw   0x00             	MOVLW	0x00
0001a6   1803     btfsc   0x03, 0x0        	BTFSC	STATUS,0
0001a7   0f3d     incfsz  0x3d, 0x0        	INCFSZ	r0x101D,W
0001a8   07be     addwf   0x3e, 0x1        	ADDWF	r0x101E,F
0001a9   083b     movf    0x3b, 0x0        	MOVF	r0x101B,W
0001aa   00fe     movwf   0x7e             	MOVWF	STK01
0001ab   083e     movf    0x3e, 0x0        	MOVF	r0x101E,W
0001ac   00ff     movwf   0x7f             	MOVWF	STK00
0001ad   3080     movlw   0x80             	MOVLW	0x80
0001ae   118a     bcf     0x0a, 0x3        	PAGESEL	__gptrget1
0001af   120a     bcf     0x0a, 0x4        
0001b0   2796     call    0x0796           	CALL	__gptrget1
0001b1   118a     bcf     0x0a, 0x3        	PAGESEL	$
0001b2   120a     bcf     0x0a, 0x4        
0001b3   1283     bcf     0x03, 0x5        	BANKSEL	r0x101F
0001b4   1303     bcf     0x03, 0x6        
0001b5   00bf     movwf   0x3f             	MOVWF	r0x101F
0001b6   118a     bcf     0x0a, 0x3        	PAGESEL	_DIO_u8ReadChannel
0001b7   120a     bcf     0x0a, 0x4        
0001b8   25cd     call    0x05cd           	CALL	_DIO_u8ReadChannel
0001b9   118a     bcf     0x0a, 0x3        	PAGESEL	$
0001ba   120a     bcf     0x0a, 0x4        
                                           ;	.line	262; "pbd_prg.c"	if(u8BtnValue == PBD_RELEASE_LEVEL)
0001bb   1283     bcf     0x03, 0x5        	BANKSEL	r0x101B
0001bc   1303     bcf     0x03, 0x6        
0001bd   00bb     movwf   0x3b             	MOVWF	r0x101B
0001be   3a01     xorlw   0x01             	XORLW	0x01
0001bf   1d03     btfss   0x03, 0x2        	BTFSS	STATUS,2
0001c0   29ee     goto    0x01ee           	GOTO	_00164_DS_
                                           ;	.line	264; "pbd_prg.c"	strBtnInfo[enuBtnId].u8DebounceCntr = BTY_u8ZERO;
0001c1   083c     movf    0x3c, 0x0        	MOVF	r0x101C,W
0001c2   3e51     addlw   0x51             	ADDLW	(_strBtnInfo + 0)
0001c3   00bb     movwf   0x3b             	MOVWF	r0x101B
0001c4   3000     movlw   0x00             	MOVLW	high (_strBtnInfo + 0)
0001c5   00be     movwf   0x3e             	MOVWF	r0x101E
0001c6   083d     movf    0x3d, 0x0        	MOVF	r0x101D,W
0001c7   1803     btfsc   0x03, 0x0        	BTFSC	STATUS,0
0001c8   0f3d     incfsz  0x3d, 0x0        	INCFSZ	r0x101D,W
0001c9   07be     addwf   0x3e, 0x1        	ADDWF	r0x101E,F
0001ca   3001     movlw   0x01             	MOVLW	0x01
0001cb   073b     addwf   0x3b, 0x0        	ADDWF	r0x101B,W
0001cc   00bf     movwf   0x3f             	MOVWF	r0x101F
0001cd   01c0     clrf    0x40             	CLRF	r0x1020
0001ce   0dc0     rlf     0x40, 0x1        	RLF	r0x1020,F
0001cf   083e     movf    0x3e, 0x0        	MOVF	r0x101E,W
0001d0   07c0     addwf   0x40, 0x1        	ADDWF	r0x1020,F
0001d1   083f     movf    0x3f, 0x0        	MOVF	r0x101F,W
0001d2   1283     bcf     0x03, 0x5        	BANKSEL	FSR
0001d3   1303     bcf     0x03, 0x6        
0001d4   0084     movwf   0x04             	MOVWF	FSR
0001d5   1383     bcf     0x03, 0x7        	BCF	STATUS,7
0001d6   1283     bcf     0x03, 0x5        	BANKSEL	r0x1020
0001d7   1303     bcf     0x03, 0x6        
0001d8   1840     btfsc   0x40, 0x0        	BTFSC	r0x1020,0
0001d9   1783     bsf     0x03, 0x7        	BSF	STATUS,7
0001da   3000     movlw   0x00             	MOVLW	0x00
0001db   1283     bcf     0x03, 0x5        	BANKSEL	INDF
0001dc   1303     bcf     0x03, 0x6        
0001dd   0080     movwf   0x00             	MOVWF	INDF
                                           ;	.line	265; "pbd_prg.c"	strBtnInfo[enuBtnId].enuBtnState    = PBD_PRE_RELEASE;
0001de   1283     bcf     0x03, 0x5        	BANKSEL	r0x101B
0001df   1303     bcf     0x03, 0x6        
0001e0   083b     movf    0x3b, 0x0        	MOVF	r0x101B,W
0001e1   1283     bcf     0x03, 0x5        	BANKSEL	FSR
0001e2   1303     bcf     0x03, 0x6        
0001e3   0084     movwf   0x04             	MOVWF	FSR
0001e4   1383     bcf     0x03, 0x7        	BCF	STATUS,7
0001e5   1283     bcf     0x03, 0x5        	BANKSEL	r0x101E
0001e6   1303     bcf     0x03, 0x6        
0001e7   183e     btfsc   0x3e, 0x0        	BTFSC	r0x101E,0
0001e8   1783     bsf     0x03, 0x7        	BSF	STATUS,7
0001e9   3004     movlw   0x04             	MOVLW	0x04
0001ea   1283     bcf     0x03, 0x5        	BANKSEL	INDF
0001eb   1303     bcf     0x03, 0x6        
0001ec   0080     movwf   0x00             	MOVWF	INDF
0001ed   2a48     goto    0x0248           	GOTO	_00166_DS_
                                           _00164_DS_
                                           ;	.line	269; "pbd_prg.c"	strBtnInfo[enuBtnId].u8HoldCntr++;
0001ee   1283     bcf     0x03, 0x5        	BANKSEL	r0x101C
0001ef   1303     bcf     0x03, 0x6        
0001f0   083c     movf    0x3c, 0x0        	MOVF	r0x101C,W
0001f1   3e51     addlw   0x51             	ADDLW	(_strBtnInfo + 0)
0001f2   00bb     movwf   0x3b             	MOVWF	r0x101B
0001f3   3000     movlw   0x00             	MOVLW	high (_strBtnInfo + 0)
0001f4   00be     movwf   0x3e             	MOVWF	r0x101E
0001f5   083d     movf    0x3d, 0x0        	MOVF	r0x101D,W
0001f6   1803     btfsc   0x03, 0x0        	BTFSC	STATUS,0
0001f7   0f3d     incfsz  0x3d, 0x0        	INCFSZ	r0x101D,W
0001f8   07be     addwf   0x3e, 0x1        	ADDWF	r0x101E,F
0001f9   3002     movlw   0x02             	MOVLW	0x02
0001fa   073b     addwf   0x3b, 0x0        	ADDWF	r0x101B,W
0001fb   00bf     movwf   0x3f             	MOVWF	r0x101F
0001fc   01c0     clrf    0x40             	CLRF	r0x1020
0001fd   0dc0     rlf     0x40, 0x1        	RLF	r0x1020,F
0001fe   083e     movf    0x3e, 0x0        	MOVF	r0x101E,W
0001ff   07c0     addwf   0x40, 0x1        	ADDWF	r0x1020,F
000200   083f     movf    0x3f, 0x0        	MOVF	r0x101F,W
000201   1283     bcf     0x03, 0x5        	BANKSEL	FSR
000202   1303     bcf     0x03, 0x6        
000203   0084     movwf   0x04             	MOVWF	FSR
000204   1383     bcf     0x03, 0x7        	BCF	STATUS,7
000205   1283     bcf     0x03, 0x5        	BANKSEL	r0x1020
000206   1303     bcf     0x03, 0x6        
000207   1840     btfsc   0x40, 0x0        	BTFSC	r0x1020,0
000208   1783     bsf     0x03, 0x7        	BSF	STATUS,7
000209   1283     bcf     0x03, 0x5        	BANKSEL	INDF
00020a   1303     bcf     0x03, 0x6        
00020b   0800     movf    0x00, 0x0        	MOVF	INDF,W
00020c   1283     bcf     0x03, 0x5        	BANKSEL	r0x1021
00020d   1303     bcf     0x03, 0x6        
00020e   00c1     movwf   0x41             	MOVWF	r0x1021
00020f   0ac1     incf    0x41, 0x1        	INCF	r0x1021,F
000210   083f     movf    0x3f, 0x0        	MOVF	r0x101F,W
000211   1283     bcf     0x03, 0x5        	BANKSEL	FSR
000212   1303     bcf     0x03, 0x6        
000213   0084     movwf   0x04             	MOVWF	FSR
000214   1383     bcf     0x03, 0x7        	BCF	STATUS,7
000215   1283     bcf     0x03, 0x5        	BANKSEL	r0x1020
000216   1303     bcf     0x03, 0x6        
000217   1840     btfsc   0x40, 0x0        	BTFSC	r0x1020,0
000218   1783     bsf     0x03, 0x7        	BSF	STATUS,7
000219   0841     movf    0x41, 0x0        	MOVF	r0x1021,W
00021a   1283     bcf     0x03, 0x5        	BANKSEL	INDF
00021b   1303     bcf     0x03, 0x6        
00021c   0080     movwf   0x00             	MOVWF	INDF
                                           ;	.line	271; "pbd_prg.c"	PBD_enuBtnConfig[enuBtnId].u8HoldThreshold)
00021d   1283     bcf     0x03, 0x5        	BANKSEL	r0x101C
00021e   1303     bcf     0x03, 0x6        
00021f   083c     movf    0x3c, 0x0        	MOVF	r0x101C,W
000220   3e22     addlw   0x22             	ADDLW	(_PBD_enuBtnConfig + 0)
000221   00bc     movwf   0x3c             	MOVWF	r0x101C
000222   083d     movf    0x3d, 0x0        	MOVF	r0x101D,W
000223   1803     btfsc   0x03, 0x0        	BTFSC	STATUS,0
000224   0f3d     incfsz  0x3d, 0x0        	INCFSZ	r0x101D,W
000225   3e0c     addlw   0x0c             	ADDLW	high (_PBD_enuBtnConfig + 0)
000226   00bd     movwf   0x3d             	MOVWF	r0x101D
000227   3002     movlw   0x02             	MOVLW	0x02
000228   07bc     addwf   0x3c, 0x1        	ADDWF	r0x101C,F
000229   1803     btfsc   0x03, 0x0        	BTFSC	STATUS,0
00022a   0abd     incf    0x3d, 0x1        	INCF	r0x101D,F
00022b   083c     movf    0x3c, 0x0        	MOVF	r0x101C,W
00022c   00fe     movwf   0x7e             	MOVWF	STK01
00022d   083d     movf    0x3d, 0x0        	MOVF	r0x101D,W
00022e   00ff     movwf   0x7f             	MOVWF	STK00
00022f   3080     movlw   0x80             	MOVLW	0x80
000230   118a     bcf     0x0a, 0x3        	PAGESEL	__gptrget1
000231   120a     bcf     0x0a, 0x4        
000232   2796     call    0x0796           	CALL	__gptrget1
000233   118a     bcf     0x0a, 0x3        	PAGESEL	$
000234   120a     bcf     0x0a, 0x4        
000235   1283     bcf     0x03, 0x5        	BANKSEL	r0x101F
000236   1303     bcf     0x03, 0x6        
000237   00bf     movwf   0x3f             	MOVWF	r0x101F
000238   0241     subwf   0x41, 0x0        	SUBWF	r0x1021,W
000239   1c03     btfss   0x03, 0x0        	BTFSS	STATUS,0
00023a   2a48     goto    0x0248           	GOTO	_00166_DS_
                                           ;;genSkipc:3247: created from rifx:00000000047558B0
                                           ;	.line	273; "pbd_prg.c"	strBtnInfo[enuBtnId].enuBtnState = PBD_HOLD;
00023b   083b     movf    0x3b, 0x0        	MOVF	r0x101B,W
00023c   1283     bcf     0x03, 0x5        	BANKSEL	FSR
00023d   1303     bcf     0x03, 0x6        
00023e   0084     movwf   0x04             	MOVWF	FSR
00023f   1383     bcf     0x03, 0x7        	BCF	STATUS,7
000240   1283     bcf     0x03, 0x5        	BANKSEL	r0x101E
000241   1303     bcf     0x03, 0x6        
000242   183e     btfsc   0x3e, 0x0        	BTFSC	r0x101E,0
000243   1783     bsf     0x03, 0x7        	BSF	STATUS,7
000244   3003     movlw   0x03             	MOVLW	0x03
000245   1283     bcf     0x03, 0x5        	BANKSEL	INDF
000246   1303     bcf     0x03, 0x6        
000247   0080     movwf   0x00             	MOVWF	INDF
                                           _00166_DS_
000248   0008     return                   	RETURN	
                                           ; exit point of _vidPreHoldState
                                           
                                           ;***
                                           ;  pBlock Stats: dbName = C
                                           ;***
                                           ;entry:  _vidPushState	;Function start
                                           ; 2 exit points
                                           ;has an exit
                                           ;functions called:
                                           ;   __mulchar
                                           ;   __gptrget1
                                           ;   _DIO_u8ReadChannel
                                           ;   __mulchar
                                           ;   __gptrget1
                                           ;   _DIO_u8ReadChannel
                                           ;8 compiler assigned registers:
                                           ;   r0x1022
                                           ;   STK00
                                           ;   r0x1023
                                           ;   r0x1024
                                           ;   r0x1025
                                           ;   STK01
                                           ;   r0x1026
                                           ;   r0x1027
                                           ;; Starting pCode block
                                           _vidPushState	;Function start
                                           ; 2 exit points
                                           ;	.line	233; "pbd_prg.c"	static void vidPushState(PBD_tenuButtonId enuBtnId)
000249   1283     bcf     0x03, 0x5        	BANKSEL	r0x1022
00024a   1303     bcf     0x03, 0x6        
00024b   00b5     movwf   0x35             	MOVWF	r0x1022
                                           ;	.line	237; "pbd_prg.c"	u8BtnValue = DIO_u8ReadChannel(PBD_enuBtnConfig[enuBtnId].enuBtnChannelId);
00024c   3003     movlw   0x03             	MOVLW	0x03
00024d   00ff     movwf   0x7f             	MOVWF	STK00
00024e   0835     movf    0x35, 0x0        	MOVF	r0x1022,W
00024f   158a     bsf     0x0a, 0x3        	PAGESEL	__mulchar
000250   120a     bcf     0x0a, 0x4        
000251   23c0     call    0x03c0           	CALL	__mulchar
000252   118a     bcf     0x0a, 0x3        	PAGESEL	$
000253   120a     bcf     0x0a, 0x4        
000254   1283     bcf     0x03, 0x5        	BANKSEL	r0x1023
000255   1303     bcf     0x03, 0x6        
000256   00b6     movwf   0x36             	MOVWF	r0x1023
000257   01b7     clrf    0x37             	CLRF	r0x1024
000258   0836     movf    0x36, 0x0        	MOVF	r0x1023,W
000259   3e22     addlw   0x22             	ADDLW	(_PBD_enuBtnConfig + 0)
00025a   00b5     movwf   0x35             	MOVWF	r0x1022
00025b   300c     movlw   0x0c             	MOVLW	high (_PBD_enuBtnConfig + 0)
00025c   00b8     movwf   0x38             	MOVWF	r0x1025
00025d   3000     movlw   0x00             	MOVLW	0x00
00025e   1803     btfsc   0x03, 0x0        	BTFSC	STATUS,0
00025f   0f37     incfsz  0x37, 0x0        	INCFSZ	r0x1024,W
000260   07b8     addwf   0x38, 0x1        	ADDWF	r0x1025,F
000261   0835     movf    0x35, 0x0        	MOVF	r0x1022,W
000262   00fe     movwf   0x7e             	MOVWF	STK01
000263   0838     movf    0x38, 0x0        	MOVF	r0x1025,W
000264   00ff     movwf   0x7f             	MOVWF	STK00
000265   3080     movlw   0x80             	MOVLW	0x80
000266   118a     bcf     0x0a, 0x3        	PAGESEL	__gptrget1
000267   120a     bcf     0x0a, 0x4        
000268   2796     call    0x0796           	CALL	__gptrget1
000269   118a     bcf     0x0a, 0x3        	PAGESEL	$
00026a   120a     bcf     0x0a, 0x4        
00026b   1283     bcf     0x03, 0x5        	BANKSEL	r0x1026
00026c   1303     bcf     0x03, 0x6        
00026d   00b9     movwf   0x39             	MOVWF	r0x1026
00026e   118a     bcf     0x0a, 0x3        	PAGESEL	_DIO_u8ReadChannel
00026f   120a     bcf     0x0a, 0x4        
000270   25cd     call    0x05cd           	CALL	_DIO_u8ReadChannel
000271   118a     bcf     0x0a, 0x3        	PAGESEL	$
000272   120a     bcf     0x0a, 0x4        
                                           ;	.line	239; "pbd_prg.c"	if(u8BtnValue == PBD_RELEASE_LEVEL)
000273   1283     bcf     0x03, 0x5        	BANKSEL	r0x1022
000274   1303     bcf     0x03, 0x6        
000275   00b5     movwf   0x35             	MOVWF	r0x1022
000276   3a01     xorlw   0x01             	XORLW	0x01
000277   1d03     btfss   0x03, 0x2        	BTFSS	STATUS,2
000278   2aa6     goto    0x02a6           	GOTO	_00154_DS_
                                           ;	.line	241; "pbd_prg.c"	strBtnInfo[enuBtnId].u8DebounceCntr = BTY_u8ZERO;
000279   0836     movf    0x36, 0x0        	MOVF	r0x1023,W
00027a   3e51     addlw   0x51             	ADDLW	(_strBtnInfo + 0)
00027b   00b5     movwf   0x35             	MOVWF	r0x1022
00027c   3000     movlw   0x00             	MOVLW	high (_strBtnInfo + 0)
00027d   00b8     movwf   0x38             	MOVWF	r0x1025
00027e   0837     movf    0x37, 0x0        	MOVF	r0x1024,W
00027f   1803     btfsc   0x03, 0x0        	BTFSC	STATUS,0
000280   0f37     incfsz  0x37, 0x0        	INCFSZ	r0x1024,W
000281   07b8     addwf   0x38, 0x1        	ADDWF	r0x1025,F
000282   3001     movlw   0x01             	MOVLW	0x01
000283   0735     addwf   0x35, 0x0        	ADDWF	r0x1022,W
000284   00b9     movwf   0x39             	MOVWF	r0x1026
000285   01ba     clrf    0x3a             	CLRF	r0x1027
000286   0dba     rlf     0x3a, 0x1        	RLF	r0x1027,F
000287   0838     movf    0x38, 0x0        	MOVF	r0x1025,W
000288   07ba     addwf   0x3a, 0x1        	ADDWF	r0x1027,F
000289   0839     movf    0x39, 0x0        	MOVF	r0x1026,W
00028a   1283     bcf     0x03, 0x5        	BANKSEL	FSR
00028b   1303     bcf     0x03, 0x6        
00028c   0084     movwf   0x04             	MOVWF	FSR
00028d   1383     bcf     0x03, 0x7        	BCF	STATUS,7
00028e   1283     bcf     0x03, 0x5        	BANKSEL	r0x1027
00028f   1303     bcf     0x03, 0x6        
000290   183a     btfsc   0x3a, 0x0        	BTFSC	r0x1027,0
000291   1783     bsf     0x03, 0x7        	BSF	STATUS,7
000292   3000     movlw   0x00             	MOVLW	0x00
000293   1283     bcf     0x03, 0x5        	BANKSEL	INDF
000294   1303     bcf     0x03, 0x6        
000295   0080     movwf   0x00             	MOVWF	INDF
                                           ;	.line	242; "pbd_prg.c"	strBtnInfo[enuBtnId].enuBtnState    = PBD_PRE_RELEASE;
000296   1283     bcf     0x03, 0x5        	BANKSEL	r0x1022
000297   1303     bcf     0x03, 0x6        
000298   0835     movf    0x35, 0x0        	MOVF	r0x1022,W
000299   1283     bcf     0x03, 0x5        	BANKSEL	FSR
00029a   1303     bcf     0x03, 0x6        
00029b   0084     movwf   0x04             	MOVWF	FSR
00029c   1383     bcf     0x03, 0x7        	BCF	STATUS,7
00029d   1283     bcf     0x03, 0x5        	BANKSEL	r0x1025
00029e   1303     bcf     0x03, 0x6        
00029f   1838     btfsc   0x38, 0x0        	BTFSC	r0x1025,0
0002a0   1783     bsf     0x03, 0x7        	BSF	STATUS,7
0002a1   3004     movlw   0x04             	MOVLW	0x04
0002a2   1283     bcf     0x03, 0x5        	BANKSEL	INDF
0002a3   1303     bcf     0x03, 0x6        
0002a4   0080     movwf   0x00             	MOVWF	INDF
0002a5   2ad3     goto    0x02d3           	GOTO	_00156_DS_
                                           _00154_DS_
                                           ;	.line	246; "pbd_prg.c"	strBtnInfo[enuBtnId].u8HoldCntr  = BTY_u8ZERO;
0002a6   1283     bcf     0x03, 0x5        	BANKSEL	r0x1023
0002a7   1303     bcf     0x03, 0x6        
0002a8   0836     movf    0x36, 0x0        	MOVF	r0x1023,W
0002a9   3e51     addlw   0x51             	ADDLW	(_strBtnInfo + 0)
0002aa   00b6     movwf   0x36             	MOVWF	r0x1023
0002ab   0837     movf    0x37, 0x0        	MOVF	r0x1024,W
0002ac   1803     btfsc   0x03, 0x0        	BTFSC	STATUS,0
0002ad   0f37     incfsz  0x37, 0x0        	INCFSZ	r0x1024,W
0002ae   3e00     addlw   0x00             	ADDLW	high (_strBtnInfo + 0)
0002af   00b7     movwf   0x37             	MOVWF	r0x1024
0002b0   3002     movlw   0x02             	MOVLW	0x02
0002b1   0736     addwf   0x36, 0x0        	ADDWF	r0x1023,W
0002b2   00b5     movwf   0x35             	MOVWF	r0x1022
0002b3   01b8     clrf    0x38             	CLRF	r0x1025
0002b4   0db8     rlf     0x38, 0x1        	RLF	r0x1025,F
0002b5   0837     movf    0x37, 0x0        	MOVF	r0x1024,W
0002b6   07b8     addwf   0x38, 0x1        	ADDWF	r0x1025,F
0002b7   0835     movf    0x35, 0x0        	MOVF	r0x1022,W
0002b8   1283     bcf     0x03, 0x5        	BANKSEL	FSR
0002b9   1303     bcf     0x03, 0x6        
0002ba   0084     movwf   0x04             	MOVWF	FSR
0002bb   1383     bcf     0x03, 0x7        	BCF	STATUS,7
0002bc   1283     bcf     0x03, 0x5        	BANKSEL	r0x1025
0002bd   1303     bcf     0x03, 0x6        
0002be   1838     btfsc   0x38, 0x0        	BTFSC	r0x1025,0
0002bf   1783     bsf     0x03, 0x7        	BSF	STATUS,7
0002c0   3000     movlw   0x00             	MOVLW	0x00
0002c1   1283     bcf     0x03, 0x5        	BANKSEL	INDF
0002c2   1303     bcf     0x03, 0x6        
0002c3   0080     movwf   0x00             	MOVWF	INDF
                                           ;	.line	247; "pbd_prg.c"	strBtnInfo[enuBtnId].enuBtnState = PBD_PRE_HOLD;
0002c4   1283     bcf     0x03, 0x5        	BANKSEL	r0x1023
0002c5   1303     bcf     0x03, 0x6        
0002c6   0836     movf    0x36, 0x0        	MOVF	r0x1023,W
0002c7   1283     bcf     0x03, 0x5        	BANKSEL	FSR
0002c8   1303     bcf     0x03, 0x6        
0002c9   0084     movwf   0x04             	MOVWF	FSR
0002ca   1383     bcf     0x03, 0x7        	BCF	STATUS,7
0002cb   1283     bcf     0x03, 0x5        	BANKSEL	r0x1024
0002cc   1303     bcf     0x03, 0x6        
0002cd   1837     btfsc   0x37, 0x0        	BTFSC	r0x1024,0
0002ce   1783     bsf     0x03, 0x7        	BSF	STATUS,7
0002cf   3002     movlw   0x02             	MOVLW	0x02
0002d0   1283     bcf     0x03, 0x5        	BANKSEL	INDF
0002d1   1303     bcf     0x03, 0x6        
0002d2   0080     movwf   0x00             	MOVWF	INDF
                                           _00156_DS_
0002d3   0008     return                   	RETURN	
                                           ; exit point of _vidPushState
                                           
                                           ;***
                                           ;  pBlock Stats: dbName = C
                                           ;***
                                           ;entry:  _vidPrePushState	;Function start
                                           ; 2 exit points
                                           ;has an exit
                                           ;functions called:
                                           ;   __mulchar
                                           ;   __gptrget1
                                           ;   _DIO_u8ReadChannel
                                           ;   __gptrget1
                                           ;   __mulchar
                                           ;   __gptrget1
                                           ;   _DIO_u8ReadChannel
                                           ;   __gptrget1
                                           ;9 compiler assigned registers:
                                           ;   r0x1028
                                           ;   STK00
                                           ;   r0x1029
                                           ;   r0x102A
                                           ;   r0x102B
                                           ;   STK01
                                           ;   r0x102C
                                           ;   r0x102D
                                           ;   r0x102E
                                           ;; Starting pCode block
                                           _vidPrePushState	;Function start
                                           ; 2 exit points
                                           ;	.line	201; "pbd_prg.c"	static void vidPrePushState(PBD_tenuButtonId enuBtnId)
0002d4   1283     bcf     0x03, 0x5        	BANKSEL	r0x1028
0002d5   1303     bcf     0x03, 0x6        
0002d6   00ae     movwf   0x2e             	MOVWF	r0x1028
                                           ;	.line	205; "pbd_prg.c"	u8BtnValue = DIO_u8ReadChannel(PBD_enuBtnConfig[enuBtnId].enuBtnChannelId);
0002d7   3003     movlw   0x03             	MOVLW	0x03
0002d8   00ff     movwf   0x7f             	MOVWF	STK00
0002d9   082e     movf    0x2e, 0x0        	MOVF	r0x1028,W
0002da   158a     bsf     0x0a, 0x3        	PAGESEL	__mulchar
0002db   120a     bcf     0x0a, 0x4        
0002dc   23c0     call    0x03c0           	CALL	__mulchar
0002dd   118a     bcf     0x0a, 0x3        	PAGESEL	$
0002de   120a     bcf     0x0a, 0x4        
0002df   1283     bcf     0x03, 0x5        	BANKSEL	r0x1029
0002e0   1303     bcf     0x03, 0x6        
0002e1   00af     movwf   0x2f             	MOVWF	r0x1029
0002e2   01b0     clrf    0x30             	CLRF	r0x102A
0002e3   082f     movf    0x2f, 0x0        	MOVF	r0x1029,W
0002e4   3e22     addlw   0x22             	ADDLW	(_PBD_enuBtnConfig + 0)
0002e5   00ae     movwf   0x2e             	MOVWF	r0x1028
0002e6   300c     movlw   0x0c             	MOVLW	high (_PBD_enuBtnConfig + 0)
0002e7   00b1     movwf   0x31             	MOVWF	r0x102B
0002e8   3000     movlw   0x00             	MOVLW	0x00
0002e9   1803     btfsc   0x03, 0x0        	BTFSC	STATUS,0
0002ea   0f30     incfsz  0x30, 0x0        	INCFSZ	r0x102A,W
0002eb   07b1     addwf   0x31, 0x1        	ADDWF	r0x102B,F
0002ec   082e     movf    0x2e, 0x0        	MOVF	r0x1028,W
0002ed   00fe     movwf   0x7e             	MOVWF	STK01
0002ee   0831     movf    0x31, 0x0        	MOVF	r0x102B,W
0002ef   00ff     movwf   0x7f             	MOVWF	STK00
0002f0   3080     movlw   0x80             	MOVLW	0x80
0002f1   118a     bcf     0x0a, 0x3        	PAGESEL	__gptrget1
0002f2   120a     bcf     0x0a, 0x4        
0002f3   2796     call    0x0796           	CALL	__gptrget1
0002f4   118a     bcf     0x0a, 0x3        	PAGESEL	$
0002f5   120a     bcf     0x0a, 0x4        
0002f6   1283     bcf     0x03, 0x5        	BANKSEL	r0x102C
0002f7   1303     bcf     0x03, 0x6        
0002f8   00b2     movwf   0x32             	MOVWF	r0x102C
0002f9   118a     bcf     0x0a, 0x3        	PAGESEL	_DIO_u8ReadChannel
0002fa   120a     bcf     0x0a, 0x4        
0002fb   25cd     call    0x05cd           	CALL	_DIO_u8ReadChannel
0002fc   118a     bcf     0x0a, 0x3        	PAGESEL	$
0002fd   120a     bcf     0x0a, 0x4        
                                           ;	.line	207; "pbd_prg.c"	if(u8BtnValue == PBD_RELEASE_LEVEL)
0002fe   1283     bcf     0x03, 0x5        	BANKSEL	r0x1028
0002ff   1303     bcf     0x03, 0x6        
000300   00ae     movwf   0x2e             	MOVWF	r0x1028
000301   3a01     xorlw   0x01             	XORLW	0x01
000302   1d03     btfss   0x03, 0x2        	BTFSS	STATUS,2
000303   2b31     goto    0x0331           	GOTO	_00146_DS_
                                           ;	.line	209; "pbd_prg.c"	strBtnInfo[enuBtnId].u8DebounceCntr = BTY_u8ZERO;
000304   082f     movf    0x2f, 0x0        	MOVF	r0x1029,W
000305   3e51     addlw   0x51             	ADDLW	(_strBtnInfo + 0)
000306   00ae     movwf   0x2e             	MOVWF	r0x1028
000307   3000     movlw   0x00             	MOVLW	high (_strBtnInfo + 0)
000308   00b1     movwf   0x31             	MOVWF	r0x102B
000309   0830     movf    0x30, 0x0        	MOVF	r0x102A,W
00030a   1803     btfsc   0x03, 0x0        	BTFSC	STATUS,0
00030b   0f30     incfsz  0x30, 0x0        	INCFSZ	r0x102A,W
00030c   07b1     addwf   0x31, 0x1        	ADDWF	r0x102B,F
00030d   3001     movlw   0x01             	MOVLW	0x01
00030e   072e     addwf   0x2e, 0x0        	ADDWF	r0x1028,W
00030f   00b2     movwf   0x32             	MOVWF	r0x102C
000310   01b3     clrf    0x33             	CLRF	r0x102D
000311   0db3     rlf     0x33, 0x1        	RLF	r0x102D,F
000312   0831     movf    0x31, 0x0        	MOVF	r0x102B,W
000313   07b3     addwf   0x33, 0x1        	ADDWF	r0x102D,F
000314   0832     movf    0x32, 0x0        	MOVF	r0x102C,W
000315   1283     bcf     0x03, 0x5        	BANKSEL	FSR
000316   1303     bcf     0x03, 0x6        
000317   0084     movwf   0x04             	MOVWF	FSR
000318   1383     bcf     0x03, 0x7        	BCF	STATUS,7
000319   1283     bcf     0x03, 0x5        	BANKSEL	r0x102D
00031a   1303     bcf     0x03, 0x6        
00031b   1833     btfsc   0x33, 0x0        	BTFSC	r0x102D,0
00031c   1783     bsf     0x03, 0x7        	BSF	STATUS,7
00031d   3000     movlw   0x00             	MOVLW	0x00
00031e   1283     bcf     0x03, 0x5        	BANKSEL	INDF
00031f   1303     bcf     0x03, 0x6        
000320   0080     movwf   0x00             	MOVWF	INDF
                                           ;	.line	210; "pbd_prg.c"	strBtnInfo[enuBtnId].enuBtnState    = PBD_PRE_RELEASE;
000321   1283     bcf     0x03, 0x5        	BANKSEL	r0x1028
000322   1303     bcf     0x03, 0x6        
000323   082e     movf    0x2e, 0x0        	MOVF	r0x1028,W
000324   1283     bcf     0x03, 0x5        	BANKSEL	FSR
000325   1303     bcf     0x03, 0x6        
000326   0084     movwf   0x04             	MOVWF	FSR
000327   1383     bcf     0x03, 0x7        	BCF	STATUS,7
000328   1283     bcf     0x03, 0x5        	BANKSEL	r0x102B
000329   1303     bcf     0x03, 0x6        
00032a   1831     btfsc   0x31, 0x0        	BTFSC	r0x102B,0
00032b   1783     bsf     0x03, 0x7        	BSF	STATUS,7
00032c   3004     movlw   0x04             	MOVLW	0x04
00032d   1283     bcf     0x03, 0x5        	BANKSEL	INDF
00032e   1303     bcf     0x03, 0x6        
00032f   0080     movwf   0x00             	MOVWF	INDF
000330   2b8a     goto    0x038a           	GOTO	_00148_DS_
                                           _00146_DS_
                                           ;	.line	214; "pbd_prg.c"	strBtnInfo[enuBtnId].u8DebounceCntr++;
000331   1283     bcf     0x03, 0x5        	BANKSEL	r0x1029
000332   1303     bcf     0x03, 0x6        
000333   082f     movf    0x2f, 0x0        	MOVF	r0x1029,W
000334   3e51     addlw   0x51             	ADDLW	(_strBtnInfo + 0)
000335   00ae     movwf   0x2e             	MOVWF	r0x1028
000336   3000     movlw   0x00             	MOVLW	high (_strBtnInfo + 0)
000337   00b1     movwf   0x31             	MOVWF	r0x102B
000338   0830     movf    0x30, 0x0        	MOVF	r0x102A,W
000339   1803     btfsc   0x03, 0x0        	BTFSC	STATUS,0
00033a   0f30     incfsz  0x30, 0x0        	INCFSZ	r0x102A,W
00033b   07b1     addwf   0x31, 0x1        	ADDWF	r0x102B,F
00033c   3001     movlw   0x01             	MOVLW	0x01
00033d   072e     addwf   0x2e, 0x0        	ADDWF	r0x1028,W
00033e   00b2     movwf   0x32             	MOVWF	r0x102C
00033f   01b3     clrf    0x33             	CLRF	r0x102D
000340   0db3     rlf     0x33, 0x1        	RLF	r0x102D,F
000341   0831     movf    0x31, 0x0        	MOVF	r0x102B,W
000342   07b3     addwf   0x33, 0x1        	ADDWF	r0x102D,F
000343   0832     movf    0x32, 0x0        	MOVF	r0x102C,W
000344   1283     bcf     0x03, 0x5        	BANKSEL	FSR
000345   1303     bcf     0x03, 0x6        
000346   0084     movwf   0x04             	MOVWF	FSR
000347   1383     bcf     0x03, 0x7        	BCF	STATUS,7
000348   1283     bcf     0x03, 0x5        	BANKSEL	r0x102D
000349   1303     bcf     0x03, 0x6        
00034a   1833     btfsc   0x33, 0x0        	BTFSC	r0x102D,0
00034b   1783     bsf     0x03, 0x7        	BSF	STATUS,7
00034c   1283     bcf     0x03, 0x5        	BANKSEL	INDF
00034d   1303     bcf     0x03, 0x6        
00034e   0800     movf    0x00, 0x0        	MOVF	INDF,W
00034f   1283     bcf     0x03, 0x5        	BANKSEL	r0x102E
000350   1303     bcf     0x03, 0x6        
000351   00b4     movwf   0x34             	MOVWF	r0x102E
000352   0ab4     incf    0x34, 0x1        	INCF	r0x102E,F
000353   0832     movf    0x32, 0x0        	MOVF	r0x102C,W
000354   1283     bcf     0x03, 0x5        	BANKSEL	FSR
000355   1303     bcf     0x03, 0x6        
000356   0084     movwf   0x04             	MOVWF	FSR
000357   1383     bcf     0x03, 0x7        	BCF	STATUS,7
000358   1283     bcf     0x03, 0x5        	BANKSEL	r0x102D
000359   1303     bcf     0x03, 0x6        
00035a   1833     btfsc   0x33, 0x0        	BTFSC	r0x102D,0
00035b   1783     bsf     0x03, 0x7        	BSF	STATUS,7
00035c   0834     movf    0x34, 0x0        	MOVF	r0x102E,W
00035d   1283     bcf     0x03, 0x5        	BANKSEL	INDF
00035e   1303     bcf     0x03, 0x6        
00035f   0080     movwf   0x00             	MOVWF	INDF
                                           ;	.line	217; "pbd_prg.c"	PBD_enuBtnConfig[enuBtnId].u8DebounceThreshold)
000360   1283     bcf     0x03, 0x5        	BANKSEL	r0x1029
000361   1303     bcf     0x03, 0x6        
000362   082f     movf    0x2f, 0x0        	MOVF	r0x1029,W
000363   3e22     addlw   0x22             	ADDLW	(_PBD_enuBtnConfig + 0)
000364   00af     movwf   0x2f             	MOVWF	r0x1029
000365   0830     movf    0x30, 0x0        	MOVF	r0x102A,W
000366   1803     btfsc   0x03, 0x0        	BTFSC	STATUS,0
000367   0f30     incfsz  0x30, 0x0        	INCFSZ	r0x102A,W
000368   3e0c     addlw   0x0c             	ADDLW	high (_PBD_enuBtnConfig + 0)
000369   00b0     movwf   0x30             	MOVWF	r0x102A
00036a   0aaf     incf    0x2f, 0x1        	INCF	r0x1029,F
00036b   1903     btfsc   0x03, 0x2        	BTFSC	STATUS,2
00036c   0ab0     incf    0x30, 0x1        	INCF	r0x102A,F
00036d   082f     movf    0x2f, 0x0        	MOVF	r0x1029,W
00036e   00fe     movwf   0x7e             	MOVWF	STK01
00036f   0830     movf    0x30, 0x0        	MOVF	r0x102A,W
000370   00ff     movwf   0x7f             	MOVWF	STK00
000371   3080     movlw   0x80             	MOVLW	0x80
000372   118a     bcf     0x0a, 0x3        	PAGESEL	__gptrget1
000373   120a     bcf     0x0a, 0x4        
000374   2796     call    0x0796           	CALL	__gptrget1
000375   118a     bcf     0x0a, 0x3        	PAGESEL	$
000376   120a     bcf     0x0a, 0x4        
000377   1283     bcf     0x03, 0x5        	BANKSEL	r0x102C
000378   1303     bcf     0x03, 0x6        
000379   00b2     movwf   0x32             	MOVWF	r0x102C
00037a   0634     xorwf   0x34, 0x0        	XORWF	r0x102E,W
00037b   1d03     btfss   0x03, 0x2        	BTFSS	STATUS,2
00037c   2b8a     goto    0x038a           	GOTO	_00148_DS_
                                           ;	.line	219; "pbd_prg.c"	strBtnInfo[enuBtnId].enuBtnState    = PBD_PUSHED;
00037d   082e     movf    0x2e, 0x0        	MOVF	r0x1028,W
00037e   1283     bcf     0x03, 0x5        	BANKSEL	FSR
00037f   1303     bcf     0x03, 0x6        
000380   0084     movwf   0x04             	MOVWF	FSR
000381   1383     bcf     0x03, 0x7        	BCF	STATUS,7
000382   1283     bcf     0x03, 0x5        	BANKSEL	r0x102B
000383   1303     bcf     0x03, 0x6        
000384   1831     btfsc   0x31, 0x0        	BTFSC	r0x102B,0
000385   1783     bsf     0x03, 0x7        	BSF	STATUS,7
000386   3001     movlw   0x01             	MOVLW	0x01
000387   1283     bcf     0x03, 0x5        	BANKSEL	INDF
000388   1303     bcf     0x03, 0x6        
000389   0080     movwf   0x00             	MOVWF	INDF
                                           _00148_DS_
00038a   0008     return                   	RETURN	
                                           ; exit point of _vidPrePushState
                                           
                                           ;***
                                           ;  pBlock Stats: dbName = C
                                           ;***
                                           ;entry:  _vidUpdateBtnState	;Function start
                                           ; 2 exit points
                                           ;has an exit
                                           ;functions called:
                                           ;   __mulchar
                                           ;   _vidPrePushState
                                           ;   _vidPushState
                                           ;   _vidPreHoldState
                                           ;   _vidHoldState
                                           ;   _vidPreReleaseState
                                           ;   _vidReleaseState
                                           ;   __mulchar
                                           ;   _vidPrePushState
                                           ;   _vidPushState
                                           ;   _vidPreHoldState
                                           ;   _vidHoldState
                                           ;   _vidPreReleaseState
                                           ;   _vidReleaseState
                                           ;5 compiler assigned registers:
                                           ;   r0x102F
                                           ;   STK00
                                           ;   r0x1030
                                           ;   r0x1031
                                           ;   r0x1032
                                           ;; Starting pCode block
                                           _vidUpdateBtnState	;Function start
                                           ; 2 exit points
                                           ;	.line	162; "pbd_prg.c"	static void  vidUpdateBtnState(PBD_tenuButtonId enuBtnId)
00038b   1283     bcf     0x03, 0x5        	BANKSEL	r0x102F
00038c   1303     bcf     0x03, 0x6        
00038d   00aa     movwf   0x2a             	MOVWF	r0x102F
                                           ;	.line	164; "pbd_prg.c"	switch(strBtnInfo[enuBtnId].enuBtnState)
00038e   3003     movlw   0x03             	MOVLW	0x03
00038f   00ff     movwf   0x7f             	MOVWF	STK00
000390   082a     movf    0x2a, 0x0        	MOVF	r0x102F,W
000391   158a     bsf     0x0a, 0x3        	PAGESEL	__mulchar
000392   120a     bcf     0x0a, 0x4        
000393   23c0     call    0x03c0           	CALL	__mulchar
000394   118a     bcf     0x0a, 0x3        	PAGESEL	$
000395   120a     bcf     0x0a, 0x4        
000396   1283     bcf     0x03, 0x5        	BANKSEL	r0x1030
000397   1303     bcf     0x03, 0x6        
000398   00ab     movwf   0x2b             	MOVWF	r0x1030
000399   01ac     clrf    0x2c             	CLRF	r0x1031
00039a   082b     movf    0x2b, 0x0        	MOVF	r0x1030,W
00039b   3e51     addlw   0x51             	ADDLW	(_strBtnInfo + 0)
00039c   00ab     movwf   0x2b             	MOVWF	r0x1030
00039d   3000     movlw   0x00             	MOVLW	0x00
00039e   1803     btfsc   0x03, 0x0        	BTFSC	STATUS,0
00039f   0f2c     incfsz  0x2c, 0x0        	INCFSZ	r0x1031,W
0003a0   3e00     addlw   0x00             	ADDLW	high (_strBtnInfo + 0)
0003a1   00ac     movwf   0x2c             	MOVWF	r0x1031
0003a2   082b     movf    0x2b, 0x0        	MOVF	r0x1030,W
0003a3   1283     bcf     0x03, 0x5        	BANKSEL	FSR
0003a4   1303     bcf     0x03, 0x6        
0003a5   0084     movwf   0x04             	MOVWF	FSR
0003a6   1383     bcf     0x03, 0x7        	BCF	STATUS,7
0003a7   1283     bcf     0x03, 0x5        	BANKSEL	r0x1031
0003a8   1303     bcf     0x03, 0x6        
0003a9   182c     btfsc   0x2c, 0x0        	BTFSC	r0x1031,0
0003aa   1783     bsf     0x03, 0x7        	BSF	STATUS,7
0003ab   1283     bcf     0x03, 0x5        	BANKSEL	INDF
0003ac   1303     bcf     0x03, 0x6        
0003ad   0800     movf    0x00, 0x0        	MOVF	INDF,W
0003ae   1283     bcf     0x03, 0x5        	BANKSEL	r0x1032
0003af   1303     bcf     0x03, 0x6        
0003b0   00ad     movwf   0x2d             	MOVWF	r0x1032
                                           ;;swapping arguments (AOP_TYPEs 1/2)
                                           ;;unsigned compare: left >= lit(0x6=6), size=1
0003b1   3006     movlw   0x06             	MOVLW	0x06
0003b2   022d     subwf   0x2d, 0x0        	SUBWF	r0x1032,W
0003b3   1803     btfsc   0x03, 0x0        	BTFSC	STATUS,0
0003b4   2be6     goto    0x03e6           	GOTO	_00132_DS_
                                           ;;genSkipc:3247: created from rifx:00000000047558B0
0003b5   3003     movlw   0x03             	MOVLW	HIGH(_00138_DS_)
0003b6   1283     bcf     0x03, 0x5        	BANKSEL	PCLATH
0003b7   1303     bcf     0x03, 0x6        
0003b8   008a     movwf   0x0a             	MOVWF	PCLATH
0003b9   30c3     movlw   0xc3             	MOVLW	_00138_DS_
0003ba   1283     bcf     0x03, 0x5        	BANKSEL	r0x1032
0003bb   1303     bcf     0x03, 0x6        
0003bc   072d     addwf   0x2d, 0x0        	ADDWF	r0x1032,W
0003bd   1c03     btfss   0x03, 0x0        	BTFSS	STATUS,0
0003be   2bc2     goto    0x03c2           	GOTO	_00001_DS_
0003bf   1283     bcf     0x03, 0x5        	BANKSEL	PCLATH
0003c0   1303     bcf     0x03, 0x6        
0003c1   0a8a     incf    0x0a, 0x1        	INCF	PCLATH,F
                                           _00001_DS_
0003c2   0082     movwf   0x02             	MOVWF	PCL
                                           _00138_DS_
0003c3   2bc9     goto    0x03c9           	GOTO	_00124_DS_
0003c4   2bce     goto    0x03ce           	GOTO	_00125_DS_
0003c5   2bd3     goto    0x03d3           	GOTO	_00126_DS_
0003c6   2bd8     goto    0x03d8           	GOTO	_00127_DS_
0003c7   2bdd     goto    0x03dd           	GOTO	_00128_DS_
0003c8   2be2     goto    0x03e2           	GOTO	_00129_DS_
                                           _00124_DS_
                                           ;	.line	167; "pbd_prg.c"	vidPrePushState(enuBtnId);
0003c9   1283     bcf     0x03, 0x5        	BANKSEL	r0x102F
0003ca   1303     bcf     0x03, 0x6        
0003cb   082a     movf    0x2a, 0x0        	MOVF	r0x102F,W
0003cc   22d4     call    0x02d4           	CALL	_vidPrePushState
                                           ;	.line	168; "pbd_prg.c"	break;
0003cd   2be6     goto    0x03e6           	GOTO	_00132_DS_
                                           _00125_DS_
                                           ;	.line	171; "pbd_prg.c"	vidPushState(enuBtnId);
0003ce   1283     bcf     0x03, 0x5        	BANKSEL	r0x102F
0003cf   1303     bcf     0x03, 0x6        
0003d0   082a     movf    0x2a, 0x0        	MOVF	r0x102F,W
0003d1   2249     call    0x0249           	CALL	_vidPushState
                                           ;	.line	172; "pbd_prg.c"	break;
0003d2   2be6     goto    0x03e6           	GOTO	_00132_DS_
                                           _00126_DS_
                                           ;	.line	175; "pbd_prg.c"	vidPreHoldState(enuBtnId);
0003d3   1283     bcf     0x03, 0x5        	BANKSEL	r0x102F
0003d4   1303     bcf     0x03, 0x6        
0003d5   082a     movf    0x2a, 0x0        	MOVF	r0x102F,W
0003d6   2191     call    0x0191           	CALL	_vidPreHoldState
                                           ;	.line	176; "pbd_prg.c"	break;
0003d7   2be6     goto    0x03e6           	GOTO	_00132_DS_
                                           _00127_DS_
                                           ;	.line	179; "pbd_prg.c"	vidHoldState(enuBtnId);
0003d8   1283     bcf     0x03, 0x5        	BANKSEL	r0x102F
0003d9   1303     bcf     0x03, 0x6        
0003da   082a     movf    0x2a, 0x0        	MOVF	r0x102F,W
0003db   2138     call    0x0138           	CALL	_vidHoldState
                                           ;	.line	180; "pbd_prg.c"	break;
0003dc   2be6     goto    0x03e6           	GOTO	_00132_DS_
                                           _00128_DS_
                                           ;	.line	183; "pbd_prg.c"	vidPreReleaseState(enuBtnId);
0003dd   1283     bcf     0x03, 0x5        	BANKSEL	r0x102F
0003de   1303     bcf     0x03, 0x6        
0003df   082a     movf    0x2a, 0x0        	MOVF	r0x102F,W
0003e0   2082     call    0x0082           	CALL	_vidPreReleaseState
                                           ;	.line	184; "pbd_prg.c"	break;
0003e1   2be6     goto    0x03e6           	GOTO	_00132_DS_
                                           _00129_DS_
                                           ;	.line	187; "pbd_prg.c"	vidReleaseState(enuBtnId);
0003e2   1283     bcf     0x03, 0x5        	BANKSEL	r0x102F
0003e3   1303     bcf     0x03, 0x6        
0003e4   082a     movf    0x2a, 0x0        	MOVF	r0x102F,W
0003e5   2029     call    0x0029           	CALL	_vidReleaseState
                                           _00132_DS_
                                           ;	.line	192; "pbd_prg.c"	}
0003e6   0008     return                   	RETURN	
                                           ; exit point of _vidUpdateBtnState
                                           
                                           ;***
                                           ;  pBlock Stats: dbName = C
                                           ;***
                                           ;entry:  _PBD_enuGetButtonState	;Function start
                                           ; 2 exit points
                                           ;has an exit
                                           ;functions called:
                                           ;   __mulchar
                                           ;   __mulchar
                                           ;5 compiler assigned registers:
                                           ;   r0x1033
                                           ;   STK00
                                           ;   r0x1034
                                           ;   r0x1035
                                           ;   r0x1036
                                           ;; Starting pCode block
                                           _PBD_enuGetButtonState	;Function start
                                           ; 2 exit points
                                           ;	.line	130; "pbd_prg.c"	PBD_tenuButtonState PBD_enuGetButtonState(PBD_tenuButtonId enuButtonId)
0003e7   1283     bcf     0x03, 0x5        	BANKSEL	r0x1033
0003e8   1303     bcf     0x03, 0x6        
0003e9   00a6     movwf   0x26             	MOVWF	r0x1033
                                           ;;unsigned compare: left < lit(0x3=3), size=1
                                           ;	.line	134; "pbd_prg.c"	if(enuButtonId < PBD_BUTTONS_NUM)
0003ea   3003     movlw   0x03             	MOVLW	0x03
0003eb   0226     subwf   0x26, 0x0        	SUBWF	r0x1033,W
0003ec   1803     btfsc   0x03, 0x0        	BTFSC	STATUS,0
0003ed   2c13     goto    0x0413           	GOTO	_00118_DS_
                                           ;;genSkipc:3247: created from rifx:00000000047558B0
                                           ;	.line	136; "pbd_prg.c"	enuReturn = strBtnInfo[enuButtonId].enuBtnState;
0003ee   3003     movlw   0x03             	MOVLW	0x03
0003ef   00ff     movwf   0x7f             	MOVWF	STK00
0003f0   0826     movf    0x26, 0x0        	MOVF	r0x1033,W
0003f1   158a     bsf     0x0a, 0x3        	PAGESEL	__mulchar
0003f2   120a     bcf     0x0a, 0x4        
0003f3   23c0     call    0x03c0           	CALL	__mulchar
0003f4   118a     bcf     0x0a, 0x3        	PAGESEL	$
0003f5   120a     bcf     0x0a, 0x4        
0003f6   1283     bcf     0x03, 0x5        	BANKSEL	r0x1034
0003f7   1303     bcf     0x03, 0x6        
0003f8   00a7     movwf   0x27             	MOVWF	r0x1034
0003f9   01a8     clrf    0x28             	CLRF	r0x1035
0003fa   0827     movf    0x27, 0x0        	MOVF	r0x1034,W
0003fb   3e51     addlw   0x51             	ADDLW	(_strBtnInfo + 0)
0003fc   00a6     movwf   0x26             	MOVWF	r0x1033
0003fd   3000     movlw   0x00             	MOVLW	high (_strBtnInfo + 0)
0003fe   00a9     movwf   0x29             	MOVWF	r0x1036
0003ff   3000     movlw   0x00             	MOVLW	0x00
000400   1803     btfsc   0x03, 0x0        	BTFSC	STATUS,0
000401   0f28     incfsz  0x28, 0x0        	INCFSZ	r0x1035,W
000402   07a9     addwf   0x29, 0x1        	ADDWF	r0x1036,F
000403   0826     movf    0x26, 0x0        	MOVF	r0x1033,W
000404   1283     bcf     0x03, 0x5        	BANKSEL	FSR
000405   1303     bcf     0x03, 0x6        
000406   0084     movwf   0x04             	MOVWF	FSR
000407   1383     bcf     0x03, 0x7        	BCF	STATUS,7
000408   1283     bcf     0x03, 0x5        	BANKSEL	r0x1036
000409   1303     bcf     0x03, 0x6        
00040a   1829     btfsc   0x29, 0x0        	BTFSC	r0x1036,0
00040b   1783     bsf     0x03, 0x7        	BSF	STATUS,7
00040c   1283     bcf     0x03, 0x5        	BANKSEL	INDF
00040d   1303     bcf     0x03, 0x6        
00040e   0800     movf    0x00, 0x0        	MOVF	INDF,W
00040f   1283     bcf     0x03, 0x5        	BANKSEL	r0x1034
000410   1303     bcf     0x03, 0x6        
000411   00a7     movwf   0x27             	MOVWF	r0x1034
000412   2c17     goto    0x0417           	GOTO	_00119_DS_
                                           _00118_DS_
                                           ;	.line	140; "pbd_prg.c"	enuReturn = PBD_UNDEFINED;
000413   3006     movlw   0x06             	MOVLW	0x06
000414   1283     bcf     0x03, 0x5        	BANKSEL	r0x1034
000415   1303     bcf     0x03, 0x6        
000416   00a7     movwf   0x27             	MOVWF	r0x1034
                                           _00119_DS_
                                           ;	.line	143; "pbd_prg.c"	return (enuReturn);
000417   1283     bcf     0x03, 0x5        	BANKSEL	r0x1034
000418   1303     bcf     0x03, 0x6        
000419   0827     movf    0x27, 0x0        	MOVF	r0x1034,W
00041a   0008     return                   	RETURN	
                                           ; exit point of _PBD_enuGetButtonState
                                           
                                           ;***
                                           ;  pBlock Stats: dbName = C
                                           ;***
                                           ;entry:  _PBD_vidTask	;Function start
                                           ; 2 exit points
                                           ;has an exit
                                           ;functions called:
                                           ;   _vidUpdateBtnState
                                           ;   _vidUpdateBtnState
                                           ;1 compiler assigned register :
                                           ;   r0x1037
                                           ;; Starting pCode block
                                           _PBD_vidTask	;Function start
                                           ; 2 exit points
                                           ;	.line	117; "pbd_prg.c"	for(u8Index=0;u8Index<PBD_BUTTONS_NUM; u8Index++)
00041b   1283     bcf     0x03, 0x5        	BANKSEL	r0x1037
00041c   1303     bcf     0x03, 0x6        
00041d   01a5     clrf    0x25             	CLRF	r0x1037
                                           _00112_DS_
                                           ;	.line	119; "pbd_prg.c"	vidUpdateBtnState((PBD_tenuButtonId)u8Index);
00041e   1283     bcf     0x03, 0x5        	BANKSEL	r0x1037
00041f   1303     bcf     0x03, 0x6        
000420   0825     movf    0x25, 0x0        	MOVF	r0x1037,W
000421   238b     call    0x038b           	CALL	_vidUpdateBtnState
                                           ;	.line	117; "pbd_prg.c"	for(u8Index=0;u8Index<PBD_BUTTONS_NUM; u8Index++)
000422   1283     bcf     0x03, 0x5        	BANKSEL	r0x1037
000423   1303     bcf     0x03, 0x6        
000424   0aa5     incf    0x25, 0x1        	INCF	r0x1037,F
                                           ;;unsigned compare: left < lit(0x3=3), size=1
000425   3003     movlw   0x03             	MOVLW	0x03
000426   0225     subwf   0x25, 0x0        	SUBWF	r0x1037,W
000427   1c03     btfss   0x03, 0x0        	BTFSS	STATUS,0
000428   2c1e     goto    0x041e           	GOTO	_00112_DS_
                                           ;;genSkipc:3247: created from rifx:00000000047558B0
000429   0008     return                   	RETURN	
                                           ; exit point of _PBD_vidTask
                                           
                                           ;***
                                           ;  pBlock Stats: dbName = C
                                           ;***
                                           ;entry:  _PBD_vidInit	;Function start
                                           ; 2 exit points
                                           ;has an exit
                                           ;functions called:
                                           ;   __mulchar
                                           ;   __mulchar
                                           ;6 compiler assigned registers:
                                           ;   r0x1038
                                           ;   STK00
                                           ;   r0x1039
                                           ;   r0x103A
                                           ;   r0x103B
                                           ;   r0x103C
                                           ;; Starting pCode block
                                           _PBD_vidInit	;Function start
                                           ; 2 exit points
                                           ;	.line	96; "pbd_prg.c"	for(u8Index=0;u8Index<PBD_BUTTONS_NUM;u8Index++)
00042a   1283     bcf     0x03, 0x5        	BANKSEL	r0x1038
00042b   1303     bcf     0x03, 0x6        
00042c   01a0     clrf    0x20             	CLRF	r0x1038
                                           _00106_DS_
                                           ;	.line	98; "pbd_prg.c"	strBtnInfo[u8Index].enuBtnState     = PBD_RELEASED;
00042d   3003     movlw   0x03             	MOVLW	0x03
00042e   00ff     movwf   0x7f             	MOVWF	STK00
00042f   1283     bcf     0x03, 0x5        	BANKSEL	r0x1038
000430   1303     bcf     0x03, 0x6        
000431   0820     movf    0x20, 0x0        	MOVF	r0x1038,W
000432   158a     bsf     0x0a, 0x3        	PAGESEL	__mulchar
000433   120a     bcf     0x0a, 0x4        
000434   23c0     call    0x03c0           	CALL	__mulchar
000435   118a     bcf     0x0a, 0x3        	PAGESEL	$
000436   120a     bcf     0x0a, 0x4        
000437   1283     bcf     0x03, 0x5        	BANKSEL	r0x1039
000438   1303     bcf     0x03, 0x6        
000439   00a1     movwf   0x21             	MOVWF	r0x1039
00043a   01a2     clrf    0x22             	CLRF	r0x103A
00043b   0821     movf    0x21, 0x0        	MOVF	r0x1039,W
00043c   3e51     addlw   0x51             	ADDLW	(_strBtnInfo + 0)
00043d   00a3     movwf   0x23             	MOVWF	r0x103B
00043e   3000     movlw   0x00             	MOVLW	high (_strBtnInfo + 0)
00043f   00a4     movwf   0x24             	MOVWF	r0x103C
000440   3000     movlw   0x00             	MOVLW	0x00
000441   1803     btfsc   0x03, 0x0        	BTFSC	STATUS,0
000442   0f22     incfsz  0x22, 0x0        	INCFSZ	r0x103A,W
000443   07a4     addwf   0x24, 0x1        	ADDWF	r0x103C,F
000444   0823     movf    0x23, 0x0        	MOVF	r0x103B,W
000445   1283     bcf     0x03, 0x5        	BANKSEL	FSR
000446   1303     bcf     0x03, 0x6        
000447   0084     movwf   0x04             	MOVWF	FSR
000448   1383     bcf     0x03, 0x7        	BCF	STATUS,7
000449   1283     bcf     0x03, 0x5        	BANKSEL	r0x103C
00044a   1303     bcf     0x03, 0x6        
00044b   1824     btfsc   0x24, 0x0        	BTFSC	r0x103C,0
00044c   1783     bsf     0x03, 0x7        	BSF	STATUS,7
00044d   3005     movlw   0x05             	MOVLW	0x05
00044e   1283     bcf     0x03, 0x5        	BANKSEL	INDF
00044f   1303     bcf     0x03, 0x6        
000450   0080     movwf   0x00             	MOVWF	INDF
                                           ;	.line	99; "pbd_prg.c"	strBtnInfo[u8Index].u8DebounceCntr  = BTY_u8ZERO;
000451   1283     bcf     0x03, 0x5        	BANKSEL	r0x1039
000452   1303     bcf     0x03, 0x6        
000453   0821     movf    0x21, 0x0        	MOVF	r0x1039,W
000454   3e51     addlw   0x51             	ADDLW	(_strBtnInfo + 0)
000455   00a1     movwf   0x21             	MOVWF	r0x1039
000456   0822     movf    0x22, 0x0        	MOVF	r0x103A,W
000457   1803     btfsc   0x03, 0x0        	BTFSC	STATUS,0
000458   0f22     incfsz  0x22, 0x0        	INCFSZ	r0x103A,W
000459   3e00     addlw   0x00             	ADDLW	high (_strBtnInfo + 0)
00045a   00a2     movwf   0x22             	MOVWF	r0x103A
00045b   3001     movlw   0x01             	MOVLW	0x01
00045c   0721     addwf   0x21, 0x0        	ADDWF	r0x1039,W
00045d   00a3     movwf   0x23             	MOVWF	r0x103B
00045e   01a4     clrf    0x24             	CLRF	r0x103C
00045f   0da4     rlf     0x24, 0x1        	RLF	r0x103C,F
000460   0822     movf    0x22, 0x0        	MOVF	r0x103A,W
000461   07a4     addwf   0x24, 0x1        	ADDWF	r0x103C,F
000462   0823     movf    0x23, 0x0        	MOVF	r0x103B,W
000463   1283     bcf     0x03, 0x5        	BANKSEL	FSR
000464   1303     bcf     0x03, 0x6        
000465   0084     movwf   0x04             	MOVWF	FSR
000466   1383     bcf     0x03, 0x7        	BCF	STATUS,7
000467   1283     bcf     0x03, 0x5        	BANKSEL	r0x103C
000468   1303     bcf     0x03, 0x6        
000469   1824     btfsc   0x24, 0x0        	BTFSC	r0x103C,0
00046a   1783     bsf     0x03, 0x7        	BSF	STATUS,7
00046b   3000     movlw   0x00             	MOVLW	0x00
00046c   1283     bcf     0x03, 0x5        	BANKSEL	INDF
00046d   1303     bcf     0x03, 0x6        
00046e   0080     movwf   0x00             	MOVWF	INDF
                                           ;	.line	100; "pbd_prg.c"	strBtnInfo[u8Index].u8HoldCntr      = BTY_u8ZERO;
00046f   3002     movlw   0x02             	MOVLW	0x02
000470   1283     bcf     0x03, 0x5        	BANKSEL	r0x1039
000471   1303     bcf     0x03, 0x6        
000472   07a1     addwf   0x21, 0x1        	ADDWF	r0x1039,F
000473   1803     btfsc   0x03, 0x0        	BTFSC	STATUS,0
000474   0aa2     incf    0x22, 0x1        	INCF	r0x103A,F
000475   0821     movf    0x21, 0x0        	MOVF	r0x1039,W
000476   1283     bcf     0x03, 0x5        	BANKSEL	FSR
000477   1303     bcf     0x03, 0x6        
000478   0084     movwf   0x04             	MOVWF	FSR
000479   1383     bcf     0x03, 0x7        	BCF	STATUS,7
00047a   1283     bcf     0x03, 0x5        	BANKSEL	r0x103A
00047b   1303     bcf     0x03, 0x6        
00047c   1822     btfsc   0x22, 0x0        	BTFSC	r0x103A,0
00047d   1783     bsf     0x03, 0x7        	BSF	STATUS,7
00047e   3000     movlw   0x00             	MOVLW	0x00
00047f   1283     bcf     0x03, 0x5        	BANKSEL	INDF
000480   1303     bcf     0x03, 0x6        
000481   0080     movwf   0x00             	MOVWF	INDF
                                           ;	.line	96; "pbd_prg.c"	for(u8Index=0;u8Index<PBD_BUTTONS_NUM;u8Index++)
000482   1283     bcf     0x03, 0x5        	BANKSEL	r0x1038
000483   1303     bcf     0x03, 0x6        
000484   0aa0     incf    0x20, 0x1        	INCF	r0x1038,F
                                           ;;unsigned compare: left < lit(0x3=3), size=1
000485   3003     movlw   0x03             	MOVLW	0x03
000486   0220     subwf   0x20, 0x0        	SUBWF	r0x1038,W
000487   1c03     btfss   0x03, 0x0        	BTFSS	STATUS,0
000488   2c2d     goto    0x042d           	GOTO	_00106_DS_
                                           ;;genSkipc:3247: created from rifx:00000000047558B0
000489   0008     return                   	RETURN	
                                           ; exit point of _PBD_vidInit
                                           
                                           
                                           ;	code size estimation:
                                           ;	  721+  200 =   921 instructions ( 2242 byte)
                                           
                                           	end
                                           ;--------------------------------------------------------
                                           ; File Created by SDCC : free open source ANSI-C Compiler
                                           ; Version 3.5.0 #9253 (Jun 20 2015) (MINGW64)
                                           ; This file was generated Thu Nov 10 14:55:38 2022
                                           ;--------------------------------------------------------
                                           ; PIC port for the 14-bit core
                                           ;--------------------------------------------------------
                                           ;	.file	"port_prg.c"
                                           	list	p=16f877a
                                           	radix dec
                                           	include "p16f877a.inc"
                                                   LIST
                                           
                                           ;==========================================================================
                                           ; Build date : Aug 07 2014
                                           ;  MPASM PIC16F877A processor include
                                           ; 
                                           ;  (c) Copyright 1999-2014 Microchip Technology, All rights reserved
                                           ;==========================================================================
                                           
                                                   NOLIST
                                           ;--------------------------------------------------------
                                           ; external declarations
                                           ;--------------------------------------------------------
                                           	extern	_STATUSbits
                                           	extern	_PORTAbits
                                           	extern	_PORTBbits
                                           	extern	_PORTCbits
                                           	extern	_PORTDbits
                                           	extern	_PORTEbits
                                           	extern	_INTCONbits
                                           	extern	_PIR1bits
                                           	extern	_PIR2bits
                                           	extern	_T1CONbits
                                           	extern	_T2CONbits
                                           	extern	_SSPCONbits
                                           	extern	_CCP1CONbits
                                           	extern	_RCSTAbits
                                           	extern	_CCP2CONbits
                                           	extern	_ADCON0bits
                                           	extern	_OPTION_REGbits
                                           	extern	_TRISAbits
                                           	extern	_TRISBbits
                                           	extern	_TRISCbits
                                           	extern	_TRISDbits
                                           	extern	_TRISEbits
                                           	extern	_PIE1bits
                                           	extern	_PIE2bits
                                           	extern	_PCONbits
                                           	extern	_SSPCON2bits
                                           	extern	_SSPSTATbits
                                           	extern	_TXSTAbits
                                           	extern	_CMCONbits
                                           	extern	_CVRCONbits
                                           	extern	_ADCON1bits
                                           	extern	_EECON1bits
                                           	extern	_INDF
                                           	extern	_TMR0
                                           	extern	_PCL
                                           	extern	_STATUS
                                           	extern	_FSR
                                           	extern	_PORTA
                                           	extern	_PORTB
                                           	extern	_PORTC
                                           	extern	_PORTD
                                           	extern	_PORTE
                                           	extern	_PCLATH
                                           	extern	_INTCON
                                           	extern	_PIR1
                                           	extern	_PIR2
                                           	extern	_TMR1
                                           	extern	_TMR1L
                                           	extern	_TMR1H
                                           	extern	_T1CON
                                           	extern	_TMR2
                                           	extern	_T2CON
                                           	extern	_SSPBUF
                                           	extern	_SSPCON
                                           	extern	_CCPR1
                                           	extern	_CCPR1L
                                           	extern	_CCPR1H
                                           	extern	_CCP1CON
                                           	extern	_RCSTA
                                           	extern	_TXREG
                                           	extern	_RCREG
                                           	extern	_CCPR2
                                           	extern	_CCPR2L
                                           	extern	_CCPR2H
                                           	extern	_CCP2CON
                                           	extern	_ADRESH
                                           	extern	_ADCON0
                                           	extern	_OPTION_REG
                                           	extern	_TRISA
                                           	extern	_TRISB
                                           	extern	_TRISC
                                           	extern	_TRISD
                                           	extern	_TRISE
                                           	extern	_PIE1
                                           	extern	_PIE2
                                           	extern	_PCON
                                           	extern	_SSPCON2
                                           	extern	_PR2
                                           	extern	_SSPADD
                                           	extern	_SSPSTAT
                                           	extern	_TXSTA
                                           	extern	_SPBRG
                                           	extern	_CMCON
                                           	extern	_CVRCON
                                           	extern	_ADRESL
                                           	extern	_ADCON1
                                           	extern	_EEDATA
                                           	extern	_EEADR
                                           	extern	_EEDATH
                                           	extern	_EEADRH
                                           	extern	_EECON1
                                           	extern	_EECON2
                                           
                                           	extern PSAVE
                                           	extern SSAVE
                                           	extern WSAVE
                                           	extern STK12
                                           	extern STK11
                                           	extern STK10
                                           	extern STK09
                                           	extern STK08
                                           	extern STK07
                                           	extern STK06
                                           	extern STK05
                                           	extern STK04
                                           	extern STK03
                                           	extern STK02
                                           	extern STK01
                                           	extern STK00
                                           ;--------------------------------------------------------
                                           ; global declarations
                                           ;--------------------------------------------------------
                                           	global	_PORT_vidInit
                                           
                                           ;--------------------------------------------------------
                                           ; global definitions
                                           ;--------------------------------------------------------
                                           ;--------------------------------------------------------
                                           ; absolute symbol definitions
                                           ;--------------------------------------------------------
                                           ;--------------------------------------------------------
                                           ; compiler-defined variables
                                           ;--------------------------------------------------------
                                           ;--------------------------------------------------------
                                           ; initialized data
                                           ;--------------------------------------------------------
                                           ;--------------------------------------------------------
                                           ; overlayable items in internal ram 
                                           ;--------------------------------------------------------
                                           ;	udata_ovr
                                           ;--------------------------------------------------------
                                           ; code
                                           ;--------------------------------------------------------
                                           code_port_prg	code
                                           ;***
                                           ;  pBlock Stats: dbName = C
                                           ;***
                                           ;entry:  _PORT_vidInit	;Function start
                                           ; 2 exit points
                                           ;has an exit
                                           ;; Starting pCode block
                                           _PORT_vidInit	;Function start
                                           ; 2 exit points
                                           ;	.line	55; "port_prg.c"	TRISA = u8PORTA_DIRECTIONS;
000c16   303f     movlw   0x3f             	MOVLW	0x3f
000c17   1683     bsf     0x03, 0x5        	BANKSEL	_TRISA
000c18   1303     bcf     0x03, 0x6        
000c19   0085     movwf   0x05             	MOVWF	_TRISA
                                           ;	.line	57; "port_prg.c"	TRISB = u8PORTB_DIRECTIONS;
000c1a   300f     movlw   0x0f             	MOVLW	0x0f
000c1b   0086     movwf   0x06             	MOVWF	_TRISB
                                           ;	.line	59; "port_prg.c"	TRISC = u8PORTC_DIRECTIONS;
000c1c   30ff     movlw   0xff             	MOVLW	0xff
000c1d   0087     movwf   0x07             	MOVWF	_TRISC
                                           ;	.line	61; "port_prg.c"	TRISD = u8PORTD_DIRECTIONS;
000c1e   0188     clrf    0x08             	CLRF	_TRISD
                                           ;	.line	63; "port_prg.c"	TRISE = u8PORTE_DIRECTIONS;
000c1f   3007     movlw   0x07             	MOVLW	0x07
000c20   0089     movwf   0x09             	MOVWF	_TRISE
000c21   0008     return                   	RETURN	
                                           ; exit point of _PORT_vidInit
                                           
                                           
                                           ;	code size estimation:
                                           ;	   10+    1 =    11 instructions (   24 byte)
                                           
                                           	end
                                           ;--------------------------------------------------------
                                           ; File Created by SDCC : free open source ANSI-C Compiler
                                           ; Version 3.5.0 #9253 (Jun 20 2015) (MINGW64)
                                           ; This file was generated Thu Nov 10 17:40:20 2022
                                           ;--------------------------------------------------------
                                           ; PIC port for the 14-bit core
                                           ;--------------------------------------------------------
                                           ;	.file	"sched_cfg.c"
                                           	list	p=16f877a
                                           	radix dec
                                           	include "p16f877a.inc"
                                                   LIST
                                           
                                           ;==========================================================================
                                           ; Build date : Aug 07 2014
                                           ;  MPASM PIC16F877A processor include
                                           ; 
                                           ;  (c) Copyright 1999-2014 Microchip Technology, All rights reserved
                                           ;==========================================================================
                                           
                                                   NOLIST
                                           ;--------------------------------------------------------
                                           ; external declarations
                                           ;--------------------------------------------------------
                                           	extern	_DIO_u8ReadChannel
                                           	extern	_DIO_vidWriteChannel
                                           	extern	_DIO_vidWritePort
                                           	extern	_SSD_vidInit
                                           	extern	_SSD_vidTask
                                           	extern	_SSD_SetDisplayedNumber
                                           	extern	_PBD_vidInit
                                           	extern	_PBD_vidTask
                                           	extern	_PBD_enuGetButtonState
                                           	extern	_TIF_vidInit
                                           	extern	_TIF_vidTask
                                           	extern	_TIF_vidSetMode
                                           	extern	_HIF_vidInit
                                           	extern	_HIF_vidTask
                                           	extern	_HIF_vidSetMode
                                           	extern	_MODE_vidInit
                                           	extern	_MODE_vidTask
                                           
                                           	extern PSAVE
                                           	extern SSAVE
                                           	extern WSAVE
                                           	extern STK12
                                           	extern STK11
                                           	extern STK10
                                           	extern STK09
                                           	extern STK08
                                           	extern STK07
                                           	extern STK06
                                           	extern STK05
                                           	extern STK04
                                           	extern STK03
                                           	extern STK02
                                           	extern STK01
                                           	extern STK00
                                           ;--------------------------------------------------------
                                           ; global declarations
                                           ;--------------------------------------------------------
                                           	global	_SCHED_astrTCBConfig
                                           
                                           ;--------------------------------------------------------
                                           ; global definitions
                                           ;--------------------------------------------------------
                                           ;--------------------------------------------------------
                                           ; absolute symbol definitions
                                           ;--------------------------------------------------------
                                           ;--------------------------------------------------------
                                           ; compiler-defined variables
                                           ;--------------------------------------------------------
                                           ;--------------------------------------------------------
                                           ; initialized data
                                           ;--------------------------------------------------------
                                           
                                           ID_sched_cfg_0	idata
                                           _SCHED_astrTCBConfig
                                           	db	low (_SSD_vidTask+0), high (_SSD_vidTask+0)
                                           	db	0x00
                                           	db	0x05
                                           	db	low (_PBD_vidTask+0), high (_PBD_vidTask+0)
                                           	db	0x00
                                           	db	0x0a
                                           	db	low (_MODE_vidTask+0), high (_MODE_vidTask+0)
                                           	db	0x00
                                           	db	0x0a
                                           	db	low (_HIF_vidTask+0), high (_HIF_vidTask+0)
                                           	db	0x00
                                           	db	0x0a
                                           	db	low (_TIF_vidTask+0), high (_TIF_vidTask+0)
                                           	db	0x00
                                           	db	0x0a
                                           
                                           ;--------------------------------------------------------
                                           ; overlayable items in internal ram 
                                           ;--------------------------------------------------------
                                           ;	udata_ovr
                                           ;--------------------------------------------------------
                                           ; code
                                           ;--------------------------------------------------------
                                           code_sched_cfg	code
                                           
                                           ;	code size estimation:
                                           ;	    0+    0 =     0 instructions (    0 byte)
                                           
                                           	end
                                           ;--------------------------------------------------------
                                           ; File Created by SDCC : free open source ANSI-C Compiler
                                           ; Version 3.5.0 #9253 (Jun 20 2015) (MINGW64)
                                           ; This file was generated Thu Nov 10 14:55:39 2022
                                           ;--------------------------------------------------------
                                           ; PIC port for the 14-bit core
                                           ;--------------------------------------------------------
                                           ;	.file	"sched_prg.c"
                                           	list	p=16f877a
                                           	radix dec
                                           	include "p16f877a.inc"
                                                   LIST
                                           
                                           ;==========================================================================
                                           ; Build date : Aug 07 2014
                                           ;  MPASM PIC16F877A processor include
                                           ; 
                                           ;  (c) Copyright 1999-2014 Microchip Technology, All rights reserved
                                           ;==========================================================================
                                           
                                                   NOLIST
                                           ;--------------------------------------------------------
                                           ; external declarations
                                           ;--------------------------------------------------------
                                           	extern	_MCU_vidInit
                                           	extern	_SCHED_astrTCBConfig
                                           	extern	__mulchar
                                           
                                           	extern PSAVE
                                           	extern SSAVE
                                           	extern WSAVE
                                           	extern STK12
                                           	extern STK11
                                           	extern STK10
                                           	extern STK09
                                           	extern STK08
                                           	extern STK07
                                           	extern STK06
                                           	extern STK05
                                           	extern STK04
                                           	extern STK03
                                           	extern STK02
                                           	extern STK01
                                           	extern STK00
                                           ;--------------------------------------------------------
                                           ; global declarations
                                           ;--------------------------------------------------------
                                           	global	_SCHED_vidRtcInterrupt
                                           	global	_SCHED_vidStartScheduler
                                           	global	_SCHED_vidInit
                                           
                                           ;--------------------------------------------------------
                                           ; global definitions
                                           ;--------------------------------------------------------
                                           ;--------------------------------------------------------
                                           ; absolute symbol definitions
                                           ;--------------------------------------------------------
                                           ;--------------------------------------------------------
                                           ; compiler-defined variables
                                           ;--------------------------------------------------------
                                           UDL_sched_prg_0	udata
                                           r0x1027	res	1
                                           r0x1028	res	1
                                           r0x1029	res	1
                                           r0x102A	res	1
                                           r0x102B	res	1
                                           r0x102C	res	1
                                           r0x102D	res	1
                                           r0x102E	res	1
                                           r0x101F	res	1
                                           r0x1020	res	1
                                           r0x1021	res	1
                                           r0x1022	res	1
                                           r0x1023	res	1
                                           r0x1024	res	1
                                           r0x1025	res	1
                                           r0x1026	res	1
                                           _astrTCB	res	10
                                           _u8TickCounter	res	1
                                           ;--------------------------------------------------------
                                           ; initialized data
                                           ;--------------------------------------------------------
                                           ;--------------------------------------------------------
                                           ; overlayable items in internal ram 
                                           ;--------------------------------------------------------
                                           ;	udata_ovr
                                           ;--------------------------------------------------------
                                           ; code
                                           ;--------------------------------------------------------
                                           code_sched_prg	code
                                           ;***
                                           ;  pBlock Stats: dbName = C
                                           ;***
                                           ;entry:  _SCHED_vidRtcInterrupt	;Function start
                                           ; 0 exit points
                                           ;; Starting pCode block
                                           _SCHED_vidRtcInterrupt	;Function start
                                           ; 0 exit points
                                           ;	.line	117; "sched_prg.c"	u8TickCounter++;
000658   1683     bsf     0x03, 0x5        	BANKSEL	_u8TickCounter
000659   1303     bcf     0x03, 0x6        
00065a   0aba     incf    0x3a, 0x1        	INCF	_u8TickCounter,F
                                           ;	.line	121; "sched_prg.c"	if(u8TickCounter == SCHED_u8MAX_TASK_DURATION)
00065b   083a     movf    0x3a, 0x0        	MOVF	_u8TickCounter,W
00065c   3a0a     xorlw   0x0a             	XORLW	0x0a
00065d   1903     btfsc   0x03, 0x2        	BTFSC	STATUS,2
                                           _00149_DS_
00065e   2e5e     goto    0x065e           	GOTO	_00149_DS_
00065f   0008     return                   	RETURN	
                                           
                                           ;***
                                           ;  pBlock Stats: dbName = C
                                           ;***
                                           ;entry:  _vidManageTemporalTasks	;Function start
                                           ; 2 exit points
                                           ;has an exit
                                           ;functions called:
                                           ;   __mulchar
                                           ;   __mulchar
                                           ;   _00139_DS_
                                           ;   __mulchar
                                           ;   __mulchar
                                           ;   _00139_DS_
                                           ;9 compiler assigned registers:
                                           ;   r0x101F
                                           ;   STK00
                                           ;   r0x1020
                                           ;   r0x1021
                                           ;   r0x1022
                                           ;   r0x1023
                                           ;   r0x1024
                                           ;   r0x1025
                                           ;   r0x1026
                                           ;; Starting pCode block
                                           _vidManageTemporalTasks	;Function start
                                           ; 2 exit points
                                           ;	.line	89; "sched_prg.c"	for(u8Index=0; u8Index<SCHED_TASKS_NUMBER; u8Index++)
000660   1683     bsf     0x03, 0x5        	BANKSEL	r0x101F
000661   1303     bcf     0x03, 0x6        
000662   01a8     clrf    0x28             	CLRF	r0x101F
                                           _00125_DS_
                                           ;	.line	91; "sched_prg.c"	if(astrTCB[u8Index].enuTaskStatus == SCHED_TASK_ACTIVE)
000663   3002     movlw   0x02             	MOVLW	0x02
000664   00ff     movwf   0x7f             	MOVWF	STK00
000665   1683     bsf     0x03, 0x5        	BANKSEL	r0x101F
000666   1303     bcf     0x03, 0x6        
000667   0828     movf    0x28, 0x0        	MOVF	r0x101F,W
000668   158a     bsf     0x0a, 0x3        	PAGESEL	__mulchar
000669   120a     bcf     0x0a, 0x4        
00066a   23c0     call    0x03c0           	CALL	__mulchar
00066b   118a     bcf     0x0a, 0x3        	PAGESEL	$
00066c   120a     bcf     0x0a, 0x4        
00066d   1683     bsf     0x03, 0x5        	BANKSEL	r0x1020
00066e   1303     bcf     0x03, 0x6        
00066f   00a9     movwf   0x29             	MOVWF	r0x1020
000670   01aa     clrf    0x2a             	CLRF	r0x1021
000671   0829     movf    0x29, 0x0        	MOVF	r0x1020,W
000672   3eb0     addlw   0xb0             	ADDLW	(_astrTCB + 0)
000673   00ab     movwf   0x2b             	MOVWF	r0x1022
000674   3000     movlw   0x00             	MOVLW	high (_astrTCB + 0)
000675   00ac     movwf   0x2c             	MOVWF	r0x1023
000676   3000     movlw   0x00             	MOVLW	0x00
000677   1803     btfsc   0x03, 0x0        	BTFSC	STATUS,0
000678   0f2a     incfsz  0x2a, 0x0        	INCFSZ	r0x1021,W
000679   07ac     addwf   0x2c, 0x1        	ADDWF	r0x1023,F
00067a   082b     movf    0x2b, 0x0        	MOVF	r0x1022,W
00067b   1283     bcf     0x03, 0x5        	BANKSEL	FSR
00067c   1303     bcf     0x03, 0x6        
00067d   0084     movwf   0x04             	MOVWF	FSR
00067e   1383     bcf     0x03, 0x7        	BCF	STATUS,7
00067f   1683     bsf     0x03, 0x5        	BANKSEL	r0x1023
000680   1303     bcf     0x03, 0x6        
000681   182c     btfsc   0x2c, 0x0        	BTFSC	r0x1023,0
000682   1783     bsf     0x03, 0x7        	BSF	STATUS,7
000683   1283     bcf     0x03, 0x5        	BANKSEL	INDF
000684   1303     bcf     0x03, 0x6        
000685   0800     movf    0x00, 0x0        	MOVF	INDF,W
000686   1683     bsf     0x03, 0x5        	BANKSEL	r0x1024
000687   1303     bcf     0x03, 0x6        
000688   00ad     movwf   0x2d             	MOVWF	r0x1024
000689   082d     movf    0x2d, 0x0        	MOVF	r0x1024,W
00068a   1d03     btfss   0x03, 0x2        	BTFSS	STATUS,2
00068b   2f19     goto    0x0719           	GOTO	_00126_DS_
                                           ;	.line	93; "sched_prg.c"	if(astrTCB[u8Index].u8TaskCounter > BTY_u8ZERO)
00068c   0829     movf    0x29, 0x0        	MOVF	r0x1020,W
00068d   3eb0     addlw   0xb0             	ADDLW	(_astrTCB + 0)
00068e   00a9     movwf   0x29             	MOVWF	r0x1020
00068f   082a     movf    0x2a, 0x0        	MOVF	r0x1021,W
000690   1803     btfsc   0x03, 0x0        	BTFSC	STATUS,0
000691   0f2a     incfsz  0x2a, 0x0        	INCFSZ	r0x1021,W
000692   3e00     addlw   0x00             	ADDLW	high (_astrTCB + 0)
000693   00aa     movwf   0x2a             	MOVWF	r0x1021
000694   0aa9     incf    0x29, 0x1        	INCF	r0x1020,F
000695   1903     btfsc   0x03, 0x2        	BTFSC	STATUS,2
000696   0aaa     incf    0x2a, 0x1        	INCF	r0x1021,F
000697   0829     movf    0x29, 0x0        	MOVF	r0x1020,W
000698   1283     bcf     0x03, 0x5        	BANKSEL	FSR
000699   1303     bcf     0x03, 0x6        
00069a   0084     movwf   0x04             	MOVWF	FSR
00069b   1383     bcf     0x03, 0x7        	BCF	STATUS,7
00069c   1683     bsf     0x03, 0x5        	BANKSEL	r0x1021
00069d   1303     bcf     0x03, 0x6        
00069e   182a     btfsc   0x2a, 0x0        	BTFSC	r0x1021,0
00069f   1783     bsf     0x03, 0x7        	BSF	STATUS,7
0006a0   1283     bcf     0x03, 0x5        	BANKSEL	INDF
0006a1   1303     bcf     0x03, 0x6        
0006a2   0800     movf    0x00, 0x0        	MOVF	INDF,W
0006a3   1683     bsf     0x03, 0x5        	BANKSEL	r0x1022
0006a4   1303     bcf     0x03, 0x6        
0006a5   00ab     movwf   0x2b             	MOVWF	r0x1022
0006a6   082b     movf    0x2b, 0x0        	MOVF	r0x1022,W
0006a7   1903     btfsc   0x03, 0x2        	BTFSC	STATUS,2
0006a8   2eb8     goto    0x06b8           	GOTO	_00120_DS_
                                           ;	.line	95; "sched_prg.c"	astrTCB[u8Index].u8TaskCounter--;
0006a9   03ab     decf    0x2b, 0x1        	DECF	r0x1022,F
0006aa   0829     movf    0x29, 0x0        	MOVF	r0x1020,W
0006ab   1283     bcf     0x03, 0x5        	BANKSEL	FSR
0006ac   1303     bcf     0x03, 0x6        
0006ad   0084     movwf   0x04             	MOVWF	FSR
0006ae   1383     bcf     0x03, 0x7        	BCF	STATUS,7
0006af   1683     bsf     0x03, 0x5        	BANKSEL	r0x1021
0006b0   1303     bcf     0x03, 0x6        
0006b1   182a     btfsc   0x2a, 0x0        	BTFSC	r0x1021,0
0006b2   1783     bsf     0x03, 0x7        	BSF	STATUS,7
0006b3   082b     movf    0x2b, 0x0        	MOVF	r0x1022,W
0006b4   1283     bcf     0x03, 0x5        	BANKSEL	INDF
0006b5   1303     bcf     0x03, 0x6        
0006b6   0080     movwf   0x00             	MOVWF	INDF
0006b7   2f19     goto    0x0719           	GOTO	_00126_DS_
                                           _00120_DS_
                                           ;	.line	100; "sched_prg.c"	SCHED_astrTCBConfig[u8Index].u8TaskPeriod;
0006b8   3004     movlw   0x04             	MOVLW	0x04
0006b9   00ff     movwf   0x7f             	MOVWF	STK00
0006ba   1683     bsf     0x03, 0x5        	BANKSEL	r0x101F
0006bb   1303     bcf     0x03, 0x6        
0006bc   0828     movf    0x28, 0x0        	MOVF	r0x101F,W
0006bd   158a     bsf     0x0a, 0x3        	PAGESEL	__mulchar
0006be   120a     bcf     0x0a, 0x4        
0006bf   23c0     call    0x03c0           	CALL	__mulchar
0006c0   118a     bcf     0x0a, 0x3        	PAGESEL	$
0006c1   120a     bcf     0x0a, 0x4        
0006c2   1683     bsf     0x03, 0x5        	BANKSEL	r0x1022
0006c3   1303     bcf     0x03, 0x6        
0006c4   00ab     movwf   0x2b             	MOVWF	r0x1022
0006c5   01ac     clrf    0x2c             	CLRF	r0x1023
0006c6   082b     movf    0x2b, 0x0        	MOVF	r0x1022,W
0006c7   3e5a     addlw   0x5a             	ADDLW	(_SCHED_astrTCBConfig + 0)
0006c8   00ab     movwf   0x2b             	MOVWF	r0x1022
0006c9   3000     movlw   0x00             	MOVLW	0x00
0006ca   1803     btfsc   0x03, 0x0        	BTFSC	STATUS,0
0006cb   0f2c     incfsz  0x2c, 0x0        	INCFSZ	r0x1023,W
0006cc   3e00     addlw   0x00             	ADDLW	high (_SCHED_astrTCBConfig + 0)
0006cd   00ac     movwf   0x2c             	MOVWF	r0x1023
0006ce   3003     movlw   0x03             	MOVLW	0x03
0006cf   072b     addwf   0x2b, 0x0        	ADDWF	r0x1022,W
0006d0   00ad     movwf   0x2d             	MOVWF	r0x1024
0006d1   01ae     clrf    0x2e             	CLRF	r0x1025
0006d2   0dae     rlf     0x2e, 0x1        	RLF	r0x1025,F
0006d3   082c     movf    0x2c, 0x0        	MOVF	r0x1023,W
0006d4   07ae     addwf   0x2e, 0x1        	ADDWF	r0x1025,F
0006d5   082d     movf    0x2d, 0x0        	MOVF	r0x1024,W
0006d6   1283     bcf     0x03, 0x5        	BANKSEL	FSR
0006d7   1303     bcf     0x03, 0x6        
0006d8   0084     movwf   0x04             	MOVWF	FSR
0006d9   1383     bcf     0x03, 0x7        	BCF	STATUS,7
0006da   1683     bsf     0x03, 0x5        	BANKSEL	r0x1025
0006db   1303     bcf     0x03, 0x6        
0006dc   182e     btfsc   0x2e, 0x0        	BTFSC	r0x1025,0
0006dd   1783     bsf     0x03, 0x7        	BSF	STATUS,7
0006de   1283     bcf     0x03, 0x5        	BANKSEL	INDF
0006df   1303     bcf     0x03, 0x6        
0006e0   0800     movf    0x00, 0x0        	MOVF	INDF,W
0006e1   1683     bsf     0x03, 0x5        	BANKSEL	r0x1026
0006e2   1303     bcf     0x03, 0x6        
0006e3   00af     movwf   0x2f             	MOVWF	r0x1026
0006e4   0829     movf    0x29, 0x0        	MOVF	r0x1020,W
0006e5   1283     bcf     0x03, 0x5        	BANKSEL	FSR
0006e6   1303     bcf     0x03, 0x6        
0006e7   0084     movwf   0x04             	MOVWF	FSR
0006e8   1383     bcf     0x03, 0x7        	BCF	STATUS,7
0006e9   1683     bsf     0x03, 0x5        	BANKSEL	r0x1021
0006ea   1303     bcf     0x03, 0x6        
0006eb   182a     btfsc   0x2a, 0x0        	BTFSC	r0x1021,0
0006ec   1783     bsf     0x03, 0x7        	BSF	STATUS,7
0006ed   082f     movf    0x2f, 0x0        	MOVF	r0x1026,W
0006ee   1283     bcf     0x03, 0x5        	BANKSEL	INDF
0006ef   1303     bcf     0x03, 0x6        
0006f0   0080     movwf   0x00             	MOVWF	INDF
                                           ;	.line	102; "sched_prg.c"	(*SCHED_astrTCBConfig[u8Index].pfTask)();
0006f1   1683     bsf     0x03, 0x5        	BANKSEL	r0x1022
0006f2   1303     bcf     0x03, 0x6        
0006f3   082b     movf    0x2b, 0x0        	MOVF	r0x1022,W
0006f4   1283     bcf     0x03, 0x5        	BANKSEL	FSR
0006f5   1303     bcf     0x03, 0x6        
0006f6   0084     movwf   0x04             	MOVWF	FSR
0006f7   1383     bcf     0x03, 0x7        	BCF	STATUS,7
0006f8   1683     bsf     0x03, 0x5        	BANKSEL	r0x1023
0006f9   1303     bcf     0x03, 0x6        
0006fa   182c     btfsc   0x2c, 0x0        	BTFSC	r0x1023,0
0006fb   1783     bsf     0x03, 0x7        	BSF	STATUS,7
0006fc   1283     bcf     0x03, 0x5        	BANKSEL	INDF
0006fd   1303     bcf     0x03, 0x6        
0006fe   0800     movf    0x00, 0x0        	MOVF	INDF,W
0006ff   1683     bsf     0x03, 0x5        	BANKSEL	r0x1020
000700   1303     bcf     0x03, 0x6        
000701   00a9     movwf   0x29             	MOVWF	r0x1020
000702   1283     bcf     0x03, 0x5        	BANKSEL	FSR
000703   1303     bcf     0x03, 0x6        
000704   0a84     incf    0x04, 0x1        	INCF	FSR,F
000705   0800     movf    0x00, 0x0        	MOVF	INDF,W
000706   1683     bsf     0x03, 0x5        	BANKSEL	r0x1021
000707   1303     bcf     0x03, 0x6        
000708   00aa     movwf   0x2a             	MOVWF	r0x1021
000709   270d     call    0x070d           	CALL	_00139_DS_
00070a   118a     bcf     0x0a, 0x3        	PAGESEL	_00126_DS_
00070b   120a     bcf     0x0a, 0x4        
00070c   2f19     goto    0x0719           	GOTO	_00126_DS_
                                           _00139_DS_
00070d   1683     bsf     0x03, 0x5        	BANKSEL	r0x1021
00070e   1303     bcf     0x03, 0x6        
00070f   082a     movf    0x2a, 0x0        	MOVF	r0x1021,W
000710   1283     bcf     0x03, 0x5        	BANKSEL	PCLATH
000711   1303     bcf     0x03, 0x6        
000712   008a     movwf   0x0a             	MOVWF	PCLATH
000713   1683     bsf     0x03, 0x5        	BANKSEL	r0x1020
000714   1303     bcf     0x03, 0x6        
000715   0829     movf    0x29, 0x0        	MOVF	r0x1020,W
000716   1283     bcf     0x03, 0x5        	BANKSEL	PCL
000717   1303     bcf     0x03, 0x6        
000718   0082     movwf   0x02             	MOVWF	PCL
                                           _00126_DS_
                                           ;	.line	89; "sched_prg.c"	for(u8Index=0; u8Index<SCHED_TASKS_NUMBER; u8Index++)
000719   1683     bsf     0x03, 0x5        	BANKSEL	r0x101F
00071a   1303     bcf     0x03, 0x6        
00071b   0aa8     incf    0x28, 0x1        	INCF	r0x101F,F
                                           ;;unsigned compare: left < lit(0x5=5), size=1
00071c   3005     movlw   0x05             	MOVLW	0x05
00071d   0228     subwf   0x28, 0x0        	SUBWF	r0x101F,W
00071e   1c03     btfss   0x03, 0x0        	BTFSS	STATUS,0
00071f   2e63     goto    0x0663           	GOTO	_00125_DS_
                                           ;;genSkipc:3247: created from rifx:00000000047558B0
000720   0008     return                   	RETURN	
                                           ; exit point of _vidManageTemporalTasks
                                           
                                           ;***
                                           ;  pBlock Stats: dbName = C
                                           ;***
                                           ;entry:  _SCHED_vidStartScheduler	;Function start
                                           ; 2 exit points
                                           ;has an exit
                                           ;functions called:
                                           ;   _vidManageTemporalTasks
                                           ;   _vidManageTemporalTasks
                                           ;; Starting pCode block
                                           _SCHED_vidStartScheduler	;Function start
                                           ; 2 exit points
                                           _00114_DS_
                                           ;	.line	71; "sched_prg.c"	if(u8TickCounter > BTY_u8ZERO)
000721   3000     movlw   0x00             	MOVLW	0x00
000722   1683     bsf     0x03, 0x5        	BANKSEL	_u8TickCounter
000723   1303     bcf     0x03, 0x6        
000724   043a     iorwf   0x3a, 0x0        	IORWF	_u8TickCounter,W
000725   1903     btfsc   0x03, 0x2        	BTFSC	STATUS,2
000726   2f21     goto    0x0721           	GOTO	_00114_DS_
                                           ;	.line	74; "sched_prg.c"	u8TickCounter--;
000727   03ba     decf    0x3a, 0x1        	DECF	_u8TickCounter,F
                                           ;	.line	76; "sched_prg.c"	vidManageTemporalTasks();
000728   2660     call    0x0660           	CALL	_vidManageTemporalTasks
000729   2f21     goto    0x0721           	GOTO	_00114_DS_
00072a   0008     return                   	RETURN	
                                           ; exit point of _SCHED_vidStartScheduler
                                           
                                           ;***
                                           ;  pBlock Stats: dbName = C
                                           ;***
                                           ;entry:  _SCHED_vidInit	;Function start
                                           ; 2 exit points
                                           ;has an exit
                                           ;functions called:
                                           ;   __mulchar
                                           ;   __mulchar
                                           ;   __mulchar
                                           ;   __mulchar
                                           ;9 compiler assigned registers:
                                           ;   r0x1027
                                           ;   STK00
                                           ;   r0x1028
                                           ;   r0x1029
                                           ;   r0x102A
                                           ;   r0x102B
                                           ;   r0x102C
                                           ;   r0x102D
                                           ;   r0x102E
                                           ;; Starting pCode block
                                           _SCHED_vidInit	;Function start
                                           ; 2 exit points
                                           ;	.line	54; "sched_prg.c"	for(u8Index=0; u8Index<SCHED_TASKS_NUMBER; u8Index++)
00072b   1683     bsf     0x03, 0x5        	BANKSEL	r0x1027
00072c   1303     bcf     0x03, 0x6        
00072d   01a0     clrf    0x20             	CLRF	r0x1027
                                           _00106_DS_
                                           ;	.line	56; "sched_prg.c"	astrTCB[u8Index].u8TaskCounter = 
00072e   3002     movlw   0x02             	MOVLW	0x02
00072f   00ff     movwf   0x7f             	MOVWF	STK00
000730   1683     bsf     0x03, 0x5        	BANKSEL	r0x1027
000731   1303     bcf     0x03, 0x6        
000732   0820     movf    0x20, 0x0        	MOVF	r0x1027,W
000733   158a     bsf     0x0a, 0x3        	PAGESEL	__mulchar
000734   120a     bcf     0x0a, 0x4        
000735   23c0     call    0x03c0           	CALL	__mulchar
000736   118a     bcf     0x0a, 0x3        	PAGESEL	$
000737   120a     bcf     0x0a, 0x4        
000738   1683     bsf     0x03, 0x5        	BANKSEL	r0x1028
000739   1303     bcf     0x03, 0x6        
00073a   00a1     movwf   0x21             	MOVWF	r0x1028
00073b   01a2     clrf    0x22             	CLRF	r0x1029
00073c   0821     movf    0x21, 0x0        	MOVF	r0x1028,W
00073d   3eb0     addlw   0xb0             	ADDLW	(_astrTCB + 0)
00073e   00a1     movwf   0x21             	MOVWF	r0x1028
00073f   3000     movlw   0x00             	MOVLW	0x00
000740   1803     btfsc   0x03, 0x0        	BTFSC	STATUS,0
000741   0f22     incfsz  0x22, 0x0        	INCFSZ	r0x1029,W
000742   3e00     addlw   0x00             	ADDLW	high (_astrTCB + 0)
000743   00a2     movwf   0x22             	MOVWF	r0x1029
000744   3001     movlw   0x01             	MOVLW	0x01
000745   0721     addwf   0x21, 0x0        	ADDWF	r0x1028,W
000746   00a3     movwf   0x23             	MOVWF	r0x102A
000747   01a4     clrf    0x24             	CLRF	r0x102B
000748   0da4     rlf     0x24, 0x1        	RLF	r0x102B,F
000749   0822     movf    0x22, 0x0        	MOVF	r0x1029,W
00074a   07a4     addwf   0x24, 0x1        	ADDWF	r0x102B,F
                                           ;	.line	57; "sched_prg.c"	SCHED_astrTCBConfig[u8Index].u8TaskDelay;
00074b   3004     movlw   0x04             	MOVLW	0x04
00074c   00ff     movwf   0x7f             	MOVWF	STK00
00074d   0820     movf    0x20, 0x0        	MOVF	r0x1027,W
00074e   158a     bsf     0x0a, 0x3        	PAGESEL	__mulchar
00074f   120a     bcf     0x0a, 0x4        
000750   23c0     call    0x03c0           	CALL	__mulchar
000751   118a     bcf     0x0a, 0x3        	PAGESEL	$
000752   120a     bcf     0x0a, 0x4        
000753   1683     bsf     0x03, 0x5        	BANKSEL	r0x102C
000754   1303     bcf     0x03, 0x6        
000755   00a5     movwf   0x25             	MOVWF	r0x102C
000756   01a6     clrf    0x26             	CLRF	r0x102D
000757   0825     movf    0x25, 0x0        	MOVF	r0x102C,W
000758   3e5a     addlw   0x5a             	ADDLW	(_SCHED_astrTCBConfig + 0)
000759   00a5     movwf   0x25             	MOVWF	r0x102C
00075a   3000     movlw   0x00             	MOVLW	0x00
00075b   1803     btfsc   0x03, 0x0        	BTFSC	STATUS,0
00075c   0f26     incfsz  0x26, 0x0        	INCFSZ	r0x102D,W
00075d   3e00     addlw   0x00             	ADDLW	high (_SCHED_astrTCBConfig + 0)
00075e   00a6     movwf   0x26             	MOVWF	r0x102D
00075f   3002     movlw   0x02             	MOVLW	0x02
000760   07a5     addwf   0x25, 0x1        	ADDWF	r0x102C,F
000761   1803     btfsc   0x03, 0x0        	BTFSC	STATUS,0
000762   0aa6     incf    0x26, 0x1        	INCF	r0x102D,F
000763   0825     movf    0x25, 0x0        	MOVF	r0x102C,W
000764   1283     bcf     0x03, 0x5        	BANKSEL	FSR
000765   1303     bcf     0x03, 0x6        
000766   0084     movwf   0x04             	MOVWF	FSR
000767   1383     bcf     0x03, 0x7        	BCF	STATUS,7
000768   1683     bsf     0x03, 0x5        	BANKSEL	r0x102D
000769   1303     bcf     0x03, 0x6        
00076a   1826     btfsc   0x26, 0x0        	BTFSC	r0x102D,0
00076b   1783     bsf     0x03, 0x7        	BSF	STATUS,7
00076c   1283     bcf     0x03, 0x5        	BANKSEL	INDF
00076d   1303     bcf     0x03, 0x6        
00076e   0800     movf    0x00, 0x0        	MOVF	INDF,W
00076f   1683     bsf     0x03, 0x5        	BANKSEL	r0x102E
000770   1303     bcf     0x03, 0x6        
000771   00a7     movwf   0x27             	MOVWF	r0x102E
000772   0823     movf    0x23, 0x0        	MOVF	r0x102A,W
000773   1283     bcf     0x03, 0x5        	BANKSEL	FSR
000774   1303     bcf     0x03, 0x6        
000775   0084     movwf   0x04             	MOVWF	FSR
000776   1383     bcf     0x03, 0x7        	BCF	STATUS,7
000777   1683     bsf     0x03, 0x5        	BANKSEL	r0x102B
000778   1303     bcf     0x03, 0x6        
000779   1824     btfsc   0x24, 0x0        	BTFSC	r0x102B,0
00077a   1783     bsf     0x03, 0x7        	BSF	STATUS,7
00077b   0827     movf    0x27, 0x0        	MOVF	r0x102E,W
00077c   1283     bcf     0x03, 0x5        	BANKSEL	INDF
00077d   1303     bcf     0x03, 0x6        
00077e   0080     movwf   0x00             	MOVWF	INDF
                                           ;	.line	59; "sched_prg.c"	astrTCB[u8Index].enuTaskStatus = SCHED_TASK_ACTIVE;
00077f   1683     bsf     0x03, 0x5        	BANKSEL	r0x1028
000780   1303     bcf     0x03, 0x6        
000781   0821     movf    0x21, 0x0        	MOVF	r0x1028,W
000782   1283     bcf     0x03, 0x5        	BANKSEL	FSR
000783   1303     bcf     0x03, 0x6        
000784   0084     movwf   0x04             	MOVWF	FSR
000785   1383     bcf     0x03, 0x7        	BCF	STATUS,7
000786   1683     bsf     0x03, 0x5        	BANKSEL	r0x1029
000787   1303     bcf     0x03, 0x6        
000788   1822     btfsc   0x22, 0x0        	BTFSC	r0x1029,0
000789   1783     bsf     0x03, 0x7        	BSF	STATUS,7
00078a   3000     movlw   0x00             	MOVLW	0x00
00078b   1283     bcf     0x03, 0x5        	BANKSEL	INDF
00078c   1303     bcf     0x03, 0x6        
00078d   0080     movwf   0x00             	MOVWF	INDF
                                           ;	.line	54; "sched_prg.c"	for(u8Index=0; u8Index<SCHED_TASKS_NUMBER; u8Index++)
00078e   1683     bsf     0x03, 0x5        	BANKSEL	r0x1027
00078f   1303     bcf     0x03, 0x6        
000790   0aa0     incf    0x20, 0x1        	INCF	r0x1027,F
                                           ;;unsigned compare: left < lit(0x5=5), size=1
000791   3005     movlw   0x05             	MOVLW	0x05
000792   0220     subwf   0x20, 0x0        	SUBWF	r0x1027,W
000793   1c03     btfss   0x03, 0x0        	BTFSS	STATUS,0
000794   2f2e     goto    0x072e           	GOTO	_00106_DS_
                                           ;;genSkipc:3247: created from rifx:00000000047558B0
000795   0008     return                   	RETURN	
                                           ; exit point of _SCHED_vidInit
                                           
                                           
                                           ;	code size estimation:
                                           ;	  194+   62 =   256 instructions (  636 byte)
                                           
                                           	end
                                           ;--------------------------------------------------------
                                           ; File Created by SDCC : free open source ANSI-C Compiler
                                           ; Version 3.5.0 #9253 (Jun 20 2015) (MINGW64)
                                           ; This file was generated Thu Nov 10 14:55:40 2022
                                           ;--------------------------------------------------------
                                           ; PIC port for the 14-bit core
                                           ;--------------------------------------------------------
                                           ;	.file	"ssd_prg.c"
                                           	list	p=16f877a
                                           	radix dec
                                           	include "p16f877a.inc"
                                                   LIST
                                           
                                           ;==========================================================================
                                           ; Build date : Aug 07 2014
                                           ;  MPASM PIC16F877A processor include
                                           ; 
                                           ;  (c) Copyright 1999-2014 Microchip Technology, All rights reserved
                                           ;==========================================================================
                                           
                                                   NOLIST
                                           ;--------------------------------------------------------
                                           ; external declarations
                                           ;--------------------------------------------------------
                                           	extern	_DIO_u8ReadChannel
                                           	extern	_DIO_vidWriteChannel
                                           	extern	_DIO_vidWritePort
                                           	extern	__gptrget1
                                           
                                           	extern PSAVE
                                           	extern SSAVE
                                           	extern WSAVE
                                           	extern STK12
                                           	extern STK11
                                           	extern STK10
                                           	extern STK09
                                           	extern STK08
                                           	extern STK07
                                           	extern STK06
                                           	extern STK05
                                           	extern STK04
                                           	extern STK03
                                           	extern STK02
                                           	extern STK01
                                           	extern STK00
                                           ;--------------------------------------------------------
                                           ; global declarations
                                           ;--------------------------------------------------------
                                           	global	_SSD_SetDisplayedNumber
                                           	global	_SSD_vidTask
                                           	global	_SSD_vidInit
                                           
                                           ;--------------------------------------------------------
                                           ; global definitions
                                           ;--------------------------------------------------------
                                           ;--------------------------------------------------------
                                           ; absolute symbol definitions
                                           ;--------------------------------------------------------
                                           ;--------------------------------------------------------
                                           ; compiler-defined variables
                                           ;--------------------------------------------------------
                                           UDL_ssd_prg_0	udata
                                           r0x1009	res	1
                                           r0x100A	res	1
                                           r0x100B	res	1
                                           r0x100C	res	1
                                           r0x1008	res	1
                                           r0x1003	res	1
                                           r0x1004	res	1
                                           r0x1005	res	1
                                           r0x1006	res	1
                                           r0x1007	res	1
                                           _enuCurrSegment	res	1
                                           _au8SegmentNumber	res	2
                                           ;--------------------------------------------------------
                                           ; initialized data
                                           ;--------------------------------------------------------
                                           
                                           ID_ssd_prg_0	code
                                           _ku8CharacterTable
000bf5   34fc     retlw   0xfc             	retlw 0xfc
000bf6   3460     retlw   0x60             	retlw 0x60
000bf7   34da     retlw   0xda             	retlw 0xda
000bf8   34f2     retlw   0xf2             	retlw 0xf2
000bf9   3466     retlw   0x66             	retlw 0x66
000bfa   34b6     retlw   0xb6             	retlw 0xb6
000bfb   34be     retlw   0xbe             	retlw 0xbe
000bfc   34e0     retlw   0xe0             	retlw 0xe0
000bfd   347f     retlw   0x7f             	retlw 0x7f
000bfe   34f6     retlw   0xf6             	retlw 0xf6
000bff   34ee     retlw   0xee             	retlw 0xee
000c00   34ff     retlw   0xff             	retlw 0xff
000c01   349c     retlw   0x9c             	retlw 0x9c
000c02   34fd     retlw   0xfd             	retlw 0xfd
000c03   349e     retlw   0x9e             	retlw 0x9e
000c04   348e     retlw   0x8e             	retlw 0x8e
000c05   34c6     retlw   0xc6             	retlw 0xc6
000c06   343a     retlw   0x3a             	retlw 0x3a
000c07   3400     retlw   0x00             	retlw 0x00
                                           
                                           ;--------------------------------------------------------
                                           ; overlayable items in internal ram 
                                           ;--------------------------------------------------------
                                           ;	udata_ovr
                                           ;--------------------------------------------------------
                                           ; code
                                           ;--------------------------------------------------------
                                           code_ssd_prg	code
                                           ;***
                                           ;  pBlock Stats: dbName = C
                                           ;***
                                           ;entry:  _SSD_SetDisplayedNumber	;Function start
                                           ; 2 exit points
                                           ;has an exit
                                           ;functions called:
                                           ;   __gptrget1
                                           ;   __gptrget1
                                           ;7 compiler assigned registers:
                                           ;   r0x1003
                                           ;   STK00
                                           ;   r0x1004
                                           ;   r0x1005
                                           ;   r0x1006
                                           ;   STK01
                                           ;   r0x1007
                                           ;; Starting pCode block
                                           _SSD_SetDisplayedNumber	;Function start
                                           ; 2 exit points
                                           ;	.line	134; "ssd_prg.c"	void SSD_SetDisplayedNumber(SSD_tenuSegmentId enuSegmentId, uint8 u8Number)
0009ca   1683     bsf     0x03, 0x5        	BANKSEL	r0x1003
0009cb   1303     bcf     0x03, 0x6        
0009cc   00c0     movwf   0x40             	MOVWF	r0x1003
0009cd   087f     movf    0x7f, 0x0        	MOVF	STK00,W
0009ce   00c1     movwf   0x41             	MOVWF	r0x1004
                                           ;;unsigned compare: left < lit(0x2=2), size=1
                                           ;	.line	136; "ssd_prg.c"	if((enuSegmentId<SSD_SEGMENT_NUMBER) && (u8Number<u8SEG_TABLE_SIZE))
0009cf   3002     movlw   0x02             	MOVLW	0x02
0009d0   0240     subwf   0x40, 0x0        	SUBWF	r0x1003,W
0009d1   1803     btfsc   0x03, 0x0        	BTFSC	STATUS,0
0009d2   29ff     goto    0x01ff           	GOTO	_00132_DS_
                                           ;;genSkipc:3247: created from rifx:00000000047558B0
                                           ;;unsigned compare: left < lit(0x13=19), size=1
0009d3   3013     movlw   0x13             	MOVLW	0x13
0009d4   0241     subwf   0x41, 0x0        	SUBWF	r0x1004,W
0009d5   1803     btfsc   0x03, 0x0        	BTFSC	STATUS,0
0009d6   29ff     goto    0x01ff           	GOTO	_00132_DS_
                                           ;;genSkipc:3247: created from rifx:00000000047558B0
                                           ;	.line	138; "ssd_prg.c"	au8SegmentNumber[enuSegmentId] = ku8CharacterTable[u8Number];
0009d7   0840     movf    0x40, 0x0        	MOVF	r0x1003,W
0009d8   3ec6     addlw   0xc6             	ADDLW	(_au8SegmentNumber + 0)
0009d9   00c0     movwf   0x40             	MOVWF	r0x1003
0009da   3000     movlw   0x00             	MOVLW	high (_au8SegmentNumber + 0)
0009db   1803     btfsc   0x03, 0x0        	BTFSC	STATUS,0
0009dc   3e01     addlw   0x01             	ADDLW	0x01
0009dd   00c2     movwf   0x42             	MOVWF	r0x1005
0009de   0841     movf    0x41, 0x0        	MOVF	r0x1004,W
0009df   3ef5     addlw   0xf5             	ADDLW	(_ku8CharacterTable + 0)
0009e0   00c1     movwf   0x41             	MOVWF	r0x1004
0009e1   300b     movlw   0x0b             	MOVLW	high (_ku8CharacterTable + 0)
0009e2   1803     btfsc   0x03, 0x0        	BTFSC	STATUS,0
0009e3   3e01     addlw   0x01             	ADDLW	0x01
0009e4   00c3     movwf   0x43             	MOVWF	r0x1006
0009e5   0841     movf    0x41, 0x0        	MOVF	r0x1004,W
0009e6   00fe     movwf   0x7e             	MOVWF	STK01
0009e7   0843     movf    0x43, 0x0        	MOVF	r0x1006,W
0009e8   00ff     movwf   0x7f             	MOVWF	STK00
0009e9   3080     movlw   0x80             	MOVLW	0x80
0009ea   118a     bcf     0x0a, 0x3        	PAGESEL	__gptrget1
0009eb   120a     bcf     0x0a, 0x4        
0009ec   2796     call    0x0796           	CALL	__gptrget1
0009ed   158a     bsf     0x0a, 0x3        	PAGESEL	$
0009ee   120a     bcf     0x0a, 0x4        
0009ef   1683     bsf     0x03, 0x5        	BANKSEL	r0x1007
0009f0   1303     bcf     0x03, 0x6        
0009f1   00c4     movwf   0x44             	MOVWF	r0x1007
0009f2   0840     movf    0x40, 0x0        	MOVF	r0x1003,W
0009f3   1283     bcf     0x03, 0x5        	BANKSEL	FSR
0009f4   1303     bcf     0x03, 0x6        
0009f5   0084     movwf   0x04             	MOVWF	FSR
0009f6   1383     bcf     0x03, 0x7        	BCF	STATUS,7
0009f7   1683     bsf     0x03, 0x5        	BANKSEL	r0x1005
0009f8   1303     bcf     0x03, 0x6        
0009f9   1842     btfsc   0x42, 0x0        	BTFSC	r0x1005,0
0009fa   1783     bsf     0x03, 0x7        	BSF	STATUS,7
0009fb   0844     movf    0x44, 0x0        	MOVF	r0x1007,W
0009fc   1283     bcf     0x03, 0x5        	BANKSEL	INDF
0009fd   1303     bcf     0x03, 0x6        
0009fe   0080     movwf   0x00             	MOVWF	INDF
                                           _00132_DS_
0009ff   0008     return                   	RETURN	
                                           ; exit point of _SSD_SetDisplayedNumber
                                           
                                           ;***
                                           ;  pBlock Stats: dbName = C
                                           ;***
                                           ;entry:  _SSD_vidTask	;Function start
                                           ; 2 exit points
                                           ;has an exit
                                           ;functions called:
                                           ;   _DIO_vidWriteChannel
                                           ;   _DIO_vidWritePort
                                           ;   _DIO_vidWriteChannel
                                           ;   _DIO_vidWriteChannel
                                           ;   _DIO_vidWritePort
                                           ;   _DIO_vidWriteChannel
                                           ;   _DIO_vidWriteChannel
                                           ;   _DIO_vidWritePort
                                           ;   _DIO_vidWriteChannel
                                           ;   _DIO_vidWriteChannel
                                           ;   _DIO_vidWritePort
                                           ;   _DIO_vidWriteChannel
                                           ;2 compiler assigned registers:
                                           ;   r0x1008
                                           ;   STK00
                                           ;; Starting pCode block
                                           _SSD_vidTask	;Function start
                                           ; 2 exit points
                                           ;	.line	101; "ssd_prg.c"	switch(enuCurrSegment)
000a00   1683     bsf     0x03, 0x5        	BANKSEL	_enuCurrSegment
000a01   1303     bcf     0x03, 0x6        
000a02   0845     movf    0x45, 0x0        	MOVF	_enuCurrSegment,W
000a03   1683     bsf     0x03, 0x5        	BANKSEL	r0x1008
000a04   1303     bcf     0x03, 0x6        
000a05   00bf     movwf   0x3f             	MOVWF	r0x1008
000a06   1903     btfsc   0x03, 0x2        	BTFSC	STATUS,2
000a07   2a0f     goto    0x020f           	GOTO	_00111_DS_
000a08   1683     bsf     0x03, 0x5        	BANKSEL	_enuCurrSegment
000a09   1303     bcf     0x03, 0x6        
000a0a   0845     movf    0x45, 0x0        	MOVF	_enuCurrSegment,W
000a0b   3a01     xorlw   0x01             	XORLW	0x01
000a0c   1903     btfsc   0x03, 0x2        	BTFSC	STATUS,2
000a0d   2a31     goto    0x0231           	GOTO	_00112_DS_
000a0e   2a52     goto    0x0252           	GOTO	_00113_DS_
                                           _00111_DS_
                                           ;	.line	105; "ssd_prg.c"	DIO_vidWriteChannel(SSD_u8SSEG2_EN_CHANNEL, DIO_LEVEL_LOW);
000a0f   3000     movlw   0x00             	MOVLW	0x00
000a10   00ff     movwf   0x7f             	MOVWF	STK00
000a11   300b     movlw   0x0b             	MOVLW	0x0b
000a12   118a     bcf     0x0a, 0x3        	PAGESEL	_DIO_vidWriteChannel
000a13   120a     bcf     0x0a, 0x4        
000a14   24c9     call    0x04c9           	CALL	_DIO_vidWriteChannel
000a15   158a     bsf     0x0a, 0x3        	PAGESEL	$
000a16   120a     bcf     0x0a, 0x4        
                                           ;	.line	106; "ssd_prg.c"	u8DisplayValue  = au8SegmentNumber[SSD_SEGMENT_RIGHT];
000a17   1683     bsf     0x03, 0x5        	BANKSEL	_au8SegmentNumber
000a18   1303     bcf     0x03, 0x6        
000a19   0846     movf    0x46, 0x0        	MOVF	(_au8SegmentNumber + 0),W
                                           ;	.line	109; "ssd_prg.c"	DIO_vidWritePort(DIO_PORTD, u8DisplayValue);
000a1a   1683     bsf     0x03, 0x5        	BANKSEL	r0x1008
000a1b   1303     bcf     0x03, 0x6        
000a1c   00bf     movwf   0x3f             	MOVWF	r0x1008
000a1d   00ff     movwf   0x7f             	MOVWF	STK00
000a1e   3003     movlw   0x03             	MOVLW	0x03
000a1f   118a     bcf     0x0a, 0x3        	PAGESEL	_DIO_vidWritePort
000a20   120a     bcf     0x0a, 0x4        
000a21   248a     call    0x048a           	CALL	_DIO_vidWritePort
000a22   158a     bsf     0x0a, 0x3        	PAGESEL	$
000a23   120a     bcf     0x0a, 0x4        
                                           ;	.line	110; "ssd_prg.c"	DIO_vidWriteChannel(SSD_u8SSEG1_EN_CHANNEL, DIO_LEVEL_HIGH);
000a24   3001     movlw   0x01             	MOVLW	0x01
000a25   00ff     movwf   0x7f             	MOVWF	STK00
000a26   300a     movlw   0x0a             	MOVLW	0x0a
000a27   118a     bcf     0x0a, 0x3        	PAGESEL	_DIO_vidWriteChannel
000a28   120a     bcf     0x0a, 0x4        
000a29   24c9     call    0x04c9           	CALL	_DIO_vidWriteChannel
000a2a   158a     bsf     0x0a, 0x3        	PAGESEL	$
000a2b   120a     bcf     0x0a, 0x4        
                                           ;	.line	111; "ssd_prg.c"	enuCurrSegment = SSD_SEGMENT_LEFT;
000a2c   3001     movlw   0x01             	MOVLW	0x01
000a2d   1683     bsf     0x03, 0x5        	BANKSEL	_enuCurrSegment
000a2e   1303     bcf     0x03, 0x6        
000a2f   00c5     movwf   0x45             	MOVWF	_enuCurrSegment
                                           ;	.line	112; "ssd_prg.c"	break;
000a30   2a55     goto    0x0255           	GOTO	_00115_DS_
                                           _00112_DS_
                                           ;	.line	116; "ssd_prg.c"	DIO_vidWriteChannel(SSD_u8SSEG1_EN_CHANNEL, DIO_LEVEL_LOW);
000a31   3000     movlw   0x00             	MOVLW	0x00
000a32   00ff     movwf   0x7f             	MOVWF	STK00
000a33   300a     movlw   0x0a             	MOVLW	0x0a
000a34   118a     bcf     0x0a, 0x3        	PAGESEL	_DIO_vidWriteChannel
000a35   120a     bcf     0x0a, 0x4        
000a36   24c9     call    0x04c9           	CALL	_DIO_vidWriteChannel
000a37   158a     bsf     0x0a, 0x3        	PAGESEL	$
000a38   120a     bcf     0x0a, 0x4        
                                           ;	.line	117; "ssd_prg.c"	u8DisplayValue  = au8SegmentNumber[SSD_SEGMENT_LEFT];
000a39   1683     bsf     0x03, 0x5        	BANKSEL	_au8SegmentNumber
000a3a   1303     bcf     0x03, 0x6        
000a3b   0847     movf    0x47, 0x0        	MOVF	(_au8SegmentNumber + 1),W
                                           ;	.line	120; "ssd_prg.c"	DIO_vidWritePort(DIO_PORTD, u8DisplayValue);
000a3c   1683     bsf     0x03, 0x5        	BANKSEL	r0x1008
000a3d   1303     bcf     0x03, 0x6        
000a3e   00bf     movwf   0x3f             	MOVWF	r0x1008
000a3f   00ff     movwf   0x7f             	MOVWF	STK00
000a40   3003     movlw   0x03             	MOVLW	0x03
000a41   118a     bcf     0x0a, 0x3        	PAGESEL	_DIO_vidWritePort
000a42   120a     bcf     0x0a, 0x4        
000a43   248a     call    0x048a           	CALL	_DIO_vidWritePort
000a44   158a     bsf     0x0a, 0x3        	PAGESEL	$
000a45   120a     bcf     0x0a, 0x4        
                                           ;	.line	121; "ssd_prg.c"	DIO_vidWriteChannel(SSD_u8SSEG2_EN_CHANNEL, DIO_LEVEL_HIGH);
000a46   3001     movlw   0x01             	MOVLW	0x01
000a47   00ff     movwf   0x7f             	MOVWF	STK00
000a48   300b     movlw   0x0b             	MOVLW	0x0b
000a49   118a     bcf     0x0a, 0x3        	PAGESEL	_DIO_vidWriteChannel
000a4a   120a     bcf     0x0a, 0x4        
000a4b   24c9     call    0x04c9           	CALL	_DIO_vidWriteChannel
000a4c   158a     bsf     0x0a, 0x3        	PAGESEL	$
000a4d   120a     bcf     0x0a, 0x4        
                                           ;	.line	122; "ssd_prg.c"	enuCurrSegment = SSD_SEGMENT_RIGHT;
000a4e   1683     bsf     0x03, 0x5        	BANKSEL	_enuCurrSegment
000a4f   1303     bcf     0x03, 0x6        
000a50   01c5     clrf    0x45             	CLRF	_enuCurrSegment
                                           ;	.line	123; "ssd_prg.c"	break;
000a51   2a55     goto    0x0255           	GOTO	_00115_DS_
                                           _00113_DS_
                                           ;	.line	126; "ssd_prg.c"	enuCurrSegment = SSD_SEGMENT_RIGHT;
000a52   1683     bsf     0x03, 0x5        	BANKSEL	_enuCurrSegment
000a53   1303     bcf     0x03, 0x6        
000a54   01c5     clrf    0x45             	CLRF	_enuCurrSegment
                                           _00115_DS_
                                           ;	.line	128; "ssd_prg.c"	}
000a55   0008     return                   	RETURN	
                                           ; exit point of _SSD_vidTask
                                           
                                           ;***
                                           ;  pBlock Stats: dbName = C
                                           ;***
                                           ;entry:  _SSD_vidInit	;Function start
                                           ; 2 exit points
                                           ;has an exit
                                           ;functions called:
                                           ;   __gptrget1
                                           ;   __gptrget1
                                           ;6 compiler assigned registers:
                                           ;   r0x1009
                                           ;   r0x100A
                                           ;   r0x100B
                                           ;   STK01
                                           ;   STK00
                                           ;   r0x100C
                                           ;; Starting pCode block
                                           _SSD_vidInit	;Function start
                                           ; 2 exit points
                                           ;	.line	85; "ssd_prg.c"	for(u8Index=0; u8Index<SSD_SEGMENT_NUMBER; u8Index++)
000a56   1683     bsf     0x03, 0x5        	BANKSEL	r0x1009
000a57   1303     bcf     0x03, 0x6        
000a58   01bb     clrf    0x3b             	CLRF	r0x1009
                                           _00106_DS_
                                           ;	.line	87; "ssd_prg.c"	au8SegmentNumber[u8Index] = ku8CharacterTable[SSD_u8DISPLAY_INIT_ID];
000a59   1683     bsf     0x03, 0x5        	BANKSEL	r0x1009
000a5a   1303     bcf     0x03, 0x6        
000a5b   083b     movf    0x3b, 0x0        	MOVF	r0x1009,W
000a5c   3ec6     addlw   0xc6             	ADDLW	(_au8SegmentNumber + 0)
000a5d   00bc     movwf   0x3c             	MOVWF	r0x100A
000a5e   3000     movlw   0x00             	MOVLW	high (_au8SegmentNumber + 0)
000a5f   1803     btfsc   0x03, 0x0        	BTFSC	STATUS,0
000a60   3e01     addlw   0x01             	ADDLW	0x01
000a61   00bd     movwf   0x3d             	MOVWF	r0x100B
000a62   3007     movlw   0x07             	MOVLW	(_ku8CharacterTable + 18)
000a63   00fe     movwf   0x7e             	MOVWF	STK01
000a64   300c     movlw   0x0c             	MOVLW	high (_ku8CharacterTable + 18)
000a65   00ff     movwf   0x7f             	MOVWF	STK00
000a66   3080     movlw   0x80             	MOVLW	0x80
000a67   118a     bcf     0x0a, 0x3        	PAGESEL	__gptrget1
000a68   120a     bcf     0x0a, 0x4        
000a69   2796     call    0x0796           	CALL	__gptrget1
000a6a   158a     bsf     0x0a, 0x3        	PAGESEL	$
000a6b   120a     bcf     0x0a, 0x4        
000a6c   1683     bsf     0x03, 0x5        	BANKSEL	r0x100C
000a6d   1303     bcf     0x03, 0x6        
000a6e   00be     movwf   0x3e             	MOVWF	r0x100C
000a6f   083c     movf    0x3c, 0x0        	MOVF	r0x100A,W
000a70   1283     bcf     0x03, 0x5        	BANKSEL	FSR
000a71   1303     bcf     0x03, 0x6        
000a72   0084     movwf   0x04             	MOVWF	FSR
000a73   1383     bcf     0x03, 0x7        	BCF	STATUS,7
000a74   1683     bsf     0x03, 0x5        	BANKSEL	r0x100B
000a75   1303     bcf     0x03, 0x6        
000a76   183d     btfsc   0x3d, 0x0        	BTFSC	r0x100B,0
000a77   1783     bsf     0x03, 0x7        	BSF	STATUS,7
000a78   083e     movf    0x3e, 0x0        	MOVF	r0x100C,W
000a79   1283     bcf     0x03, 0x5        	BANKSEL	INDF
000a7a   1303     bcf     0x03, 0x6        
000a7b   0080     movwf   0x00             	MOVWF	INDF
                                           ;	.line	85; "ssd_prg.c"	for(u8Index=0; u8Index<SSD_SEGMENT_NUMBER; u8Index++)
000a7c   1683     bsf     0x03, 0x5        	BANKSEL	r0x1009
000a7d   1303     bcf     0x03, 0x6        
000a7e   0abb     incf    0x3b, 0x1        	INCF	r0x1009,F
                                           ;;unsigned compare: left < lit(0x2=2), size=1
000a7f   3002     movlw   0x02             	MOVLW	0x02
000a80   023b     subwf   0x3b, 0x0        	SUBWF	r0x1009,W
000a81   1c03     btfss   0x03, 0x0        	BTFSS	STATUS,0
000a82   2a59     goto    0x0259           	GOTO	_00106_DS_
                                           ;;genSkipc:3247: created from rifx:00000000047558B0
                                           ;	.line	90; "ssd_prg.c"	enuCurrSegment = SSD_SEGMENT_RIGHT;
000a83   1683     bsf     0x03, 0x5        	BANKSEL	_enuCurrSegment
000a84   1303     bcf     0x03, 0x6        
000a85   01c5     clrf    0x45             	CLRF	_enuCurrSegment
000a86   0008     return                   	RETURN	
                                           ; exit point of _SSD_vidInit
                                           
                                           
                                           ;	code size estimation:
                                           ;	  111+   39 =   150 instructions (  378 byte)
                                           
                                           	end
                                           ;--------------------------------------------------------
                                           ; File Created by SDCC : free open source ANSI-C Compiler
                                           ; Version 3.5.0 #9253 (Jun 20 2015) (MINGW64)
                                           ; This file was generated Thu Nov 10 14:55:40 2022
                                           ;--------------------------------------------------------
                                           ; PIC port for the 14-bit core
                                           ;--------------------------------------------------------
                                           ;	.file	"tif_prg.c"
                                           	list	p=16f877a
                                           	radix dec
                                           	include "p16f877a.inc"
                                                   LIST
                                           
                                           ;==========================================================================
                                           ; Build date : Aug 07 2014
                                           ;  MPASM PIC16F877A processor include
                                           ; 
                                           ;  (c) Copyright 1999-2014 Microchip Technology, All rights reserved
                                           ;==========================================================================
                                           
                                                   NOLIST
                                           ;--------------------------------------------------------
                                           ; external declarations
                                           ;--------------------------------------------------------
                                           	extern	_DIO_u8ReadChannel
                                           	extern	_DIO_vidWriteChannel
                                           	extern	_DIO_vidWritePort
                                           	extern	_SSD_vidInit
                                           	extern	_SSD_vidTask
                                           	extern	_SSD_SetDisplayedNumber
                                           
                                           	extern PSAVE
                                           	extern SSAVE
                                           	extern WSAVE
                                           	extern STK12
                                           	extern STK11
                                           	extern STK10
                                           	extern STK09
                                           	extern STK08
                                           	extern STK07
                                           	extern STK06
                                           	extern STK05
                                           	extern STK04
                                           	extern STK03
                                           	extern STK02
                                           	extern STK01
                                           	extern STK00
                                           ;--------------------------------------------------------
                                           ; global declarations
                                           ;--------------------------------------------------------
                                           	global	_TIF_vidSetMode
                                           	global	_TIF_vidTask
                                           	global	_TIF_vidInit
                                           
                                           ;--------------------------------------------------------
                                           ; global definitions
                                           ;--------------------------------------------------------
                                           ;--------------------------------------------------------
                                           ; absolute symbol definitions
                                           ;--------------------------------------------------------
                                           ;--------------------------------------------------------
                                           ; compiler-defined variables
                                           ;--------------------------------------------------------
                                           UDL_tif_prg_0	udata
                                           r0x1005	res	1
                                           r0x1004	res	1
                                           _enuTiMode	res	1
                                           _enuTiOldMode	res	1
                                           _u8TifCounter	res	1
                                           _enuTifBlinkState	res	1
                                           ;--------------------------------------------------------
                                           ; initialized data
                                           ;--------------------------------------------------------
                                           ;--------------------------------------------------------
                                           ; overlayable items in internal ram 
                                           ;--------------------------------------------------------
                                           ;	udata_ovr
                                           ;--------------------------------------------------------
                                           ; code
                                           ;--------------------------------------------------------
                                           code_tif_prg	code
                                           ;***
                                           ;  pBlock Stats: dbName = C
                                           ;***
                                           ;entry:  _vidBlinkMode	;Function start
                                           ; 2 exit points
                                           ;has an exit
                                           ;functions called:
                                           ;   _SSD_SetDisplayedNumber
                                           ;   _SSD_SetDisplayedNumber
                                           ;   _SSD_SetDisplayedNumber
                                           ;   _SSD_SetDisplayedNumber
                                           ;   _SSD_SetDisplayedNumber
                                           ;   _SSD_SetDisplayedNumber
                                           ;   _SSD_SetDisplayedNumber
                                           ;   _SSD_SetDisplayedNumber
                                           ;   _SSD_SetDisplayedNumber
                                           ;   _SSD_SetDisplayedNumber
                                           ;   _SSD_SetDisplayedNumber
                                           ;   _SSD_SetDisplayedNumber
                                           ;2 compiler assigned registers:
                                           ;   r0x1004
                                           ;   STK00
                                           ;; Starting pCode block
                                           _vidBlinkMode	;Function start
                                           ; 2 exit points
                                           ;	.line	162; "tif_prg.c"	static void vidBlinkMode(TIF_enuMode enuBlinkMode)
000902   1683     bsf     0x03, 0x5        	BANKSEL	r0x1004
000903   1303     bcf     0x03, 0x6        
000904   00de     movwf   0x5e             	MOVWF	r0x1004
                                           ;	.line	164; "tif_prg.c"	u8TifCounter++;
000905   1683     bsf     0x03, 0x5        	BANKSEL	_u8TifCounter
000906   1303     bcf     0x03, 0x6        
000907   0ae1     incf    0x61, 0x1        	INCF	_u8TifCounter,F
                                           ;	.line	166; "tif_prg.c"	if(enuTifBlinkState == BLINK_OFF)
000908   1683     bsf     0x03, 0x5        	BANKSEL	_enuTifBlinkState
000909   1303     bcf     0x03, 0x6        
00090a   0862     movf    0x62, 0x0        	MOVF	_enuTifBlinkState,W
00090b   1d03     btfss   0x03, 0x2        	BTFSS	STATUS,2
00090c   2942     goto    0x0142           	GOTO	_00156_DS_
                                           ;;unsigned compare: left < lit(0x1E=30), size=1
                                           ;	.line	168; "tif_prg.c"	if(u8TifCounter >= TIF_u8BLINK_OFF_THRESHOLD)
00090d   301e     movlw   0x1e             	MOVLW	0x1e
00090e   1683     bsf     0x03, 0x5        	BANKSEL	_u8TifCounter
00090f   1303     bcf     0x03, 0x6        
000910   0261     subwf   0x61, 0x0        	SUBWF	_u8TifCounter,W
000911   1c03     btfss   0x03, 0x0        	BTFSS	STATUS,0
000912   295e     goto    0x015e           	GOTO	_00158_DS_
                                           ;;genSkipc:3247: created from rifx:00000000047558B0
                                           ;	.line	170; "tif_prg.c"	if(enuBlinkMode == TIF_RIGHT_BLINK_MODE)
000913   1683     bsf     0x03, 0x5        	BANKSEL	r0x1004
000914   1303     bcf     0x03, 0x6        
000915   085e     movf    0x5e, 0x0        	MOVF	r0x1004,W
000916   3a01     xorlw   0x01             	XORLW	0x01
000917   1d03     btfss   0x03, 0x2        	BTFSS	STATUS,2
000918   292a     goto    0x012a           	GOTO	_00149_DS_
                                           ;	.line	172; "tif_prg.c"	SSD_SetDisplayedNumber(SSD_SEGMENT_LEFT, 18);
000919   3012     movlw   0x12             	MOVLW	0x12
00091a   00ff     movwf   0x7f             	MOVWF	STK00
00091b   3001     movlw   0x01             	MOVLW	0x01
00091c   158a     bsf     0x0a, 0x3        	PAGESEL	_SSD_SetDisplayedNumber
00091d   120a     bcf     0x0a, 0x4        
00091e   21ca     call    0x01ca           	CALL	_SSD_SetDisplayedNumber
00091f   158a     bsf     0x0a, 0x3        	PAGESEL	$
000920   120a     bcf     0x0a, 0x4        
                                           ;	.line	173; "tif_prg.c"	SSD_SetDisplayedNumber(SSD_SEGMENT_RIGHT, TIF_u8BLINK_SIGNAL);
000921   3008     movlw   0x08             	MOVLW	0x08
000922   00ff     movwf   0x7f             	MOVWF	STK00
000923   3000     movlw   0x00             	MOVLW	0x00
000924   158a     bsf     0x0a, 0x3        	PAGESEL	_SSD_SetDisplayedNumber
000925   120a     bcf     0x0a, 0x4        
000926   21ca     call    0x01ca           	CALL	_SSD_SetDisplayedNumber
000927   158a     bsf     0x0a, 0x3        	PAGESEL	$
000928   120a     bcf     0x0a, 0x4        
000929   293a     goto    0x013a           	GOTO	_00150_DS_
                                           _00149_DS_
                                           ;	.line	177; "tif_prg.c"	SSD_SetDisplayedNumber(SSD_SEGMENT_LEFT, TIF_u8BLINK_SIGNAL);
00092a   3008     movlw   0x08             	MOVLW	0x08
00092b   00ff     movwf   0x7f             	MOVWF	STK00
00092c   3001     movlw   0x01             	MOVLW	0x01
00092d   158a     bsf     0x0a, 0x3        	PAGESEL	_SSD_SetDisplayedNumber
00092e   120a     bcf     0x0a, 0x4        
00092f   21ca     call    0x01ca           	CALL	_SSD_SetDisplayedNumber
000930   158a     bsf     0x0a, 0x3        	PAGESEL	$
000931   120a     bcf     0x0a, 0x4        
                                           ;	.line	178; "tif_prg.c"	SSD_SetDisplayedNumber(SSD_SEGMENT_RIGHT, 18);
000932   3012     movlw   0x12             	MOVLW	0x12
000933   00ff     movwf   0x7f             	MOVWF	STK00
000934   3000     movlw   0x00             	MOVLW	0x00
000935   158a     bsf     0x0a, 0x3        	PAGESEL	_SSD_SetDisplayedNumber
000936   120a     bcf     0x0a, 0x4        
000937   21ca     call    0x01ca           	CALL	_SSD_SetDisplayedNumber
000938   158a     bsf     0x0a, 0x3        	PAGESEL	$
000939   120a     bcf     0x0a, 0x4        
                                           _00150_DS_
                                           ;	.line	180; "tif_prg.c"	enuTifBlinkState = BLINK_ON;
00093a   3001     movlw   0x01             	MOVLW	0x01
00093b   1683     bsf     0x03, 0x5        	BANKSEL	_enuTifBlinkState
00093c   1303     bcf     0x03, 0x6        
00093d   00e2     movwf   0x62             	MOVWF	_enuTifBlinkState
                                           ;	.line	181; "tif_prg.c"	u8TifCounter     = BTY_u8ZERO;
00093e   1683     bsf     0x03, 0x5        	BANKSEL	_u8TifCounter
00093f   1303     bcf     0x03, 0x6        
000940   01e1     clrf    0x61             	CLRF	_u8TifCounter
000941   295e     goto    0x015e           	GOTO	_00158_DS_
                                           ;;unsigned compare: left < lit(0x1E=30), size=1
                                           _00156_DS_
                                           ;	.line	190; "tif_prg.c"	if(u8TifCounter >= TIF_u8BLINK_OFF_THRESHOLD)
000942   301e     movlw   0x1e             	MOVLW	0x1e
000943   1683     bsf     0x03, 0x5        	BANKSEL	_u8TifCounter
000944   1303     bcf     0x03, 0x6        
000945   0261     subwf   0x61, 0x0        	SUBWF	_u8TifCounter,W
000946   1c03     btfss   0x03, 0x0        	BTFSS	STATUS,0
000947   295e     goto    0x015e           	GOTO	_00158_DS_
                                           ;;genSkipc:3247: created from rifx:00000000047558B0
                                           ;	.line	192; "tif_prg.c"	SSD_SetDisplayedNumber(SSD_SEGMENT_LEFT, 18);
000948   3012     movlw   0x12             	MOVLW	0x12
000949   00ff     movwf   0x7f             	MOVWF	STK00
00094a   3001     movlw   0x01             	MOVLW	0x01
00094b   158a     bsf     0x0a, 0x3        	PAGESEL	_SSD_SetDisplayedNumber
00094c   120a     bcf     0x0a, 0x4        
00094d   21ca     call    0x01ca           	CALL	_SSD_SetDisplayedNumber
00094e   158a     bsf     0x0a, 0x3        	PAGESEL	$
00094f   120a     bcf     0x0a, 0x4        
                                           ;	.line	193; "tif_prg.c"	SSD_SetDisplayedNumber(SSD_SEGMENT_RIGHT, 18);
000950   3012     movlw   0x12             	MOVLW	0x12
000951   00ff     movwf   0x7f             	MOVWF	STK00
000952   3000     movlw   0x00             	MOVLW	0x00
000953   158a     bsf     0x0a, 0x3        	PAGESEL	_SSD_SetDisplayedNumber
000954   120a     bcf     0x0a, 0x4        
000955   21ca     call    0x01ca           	CALL	_SSD_SetDisplayedNumber
000956   158a     bsf     0x0a, 0x3        	PAGESEL	$
000957   120a     bcf     0x0a, 0x4        
                                           ;	.line	194; "tif_prg.c"	enuTifBlinkState = BLINK_OFF;
000958   1683     bsf     0x03, 0x5        	BANKSEL	_enuTifBlinkState
000959   1303     bcf     0x03, 0x6        
00095a   01e2     clrf    0x62             	CLRF	_enuTifBlinkState
                                           ;	.line	195; "tif_prg.c"	u8TifCounter     = BTY_u8ZERO;
00095b   1683     bsf     0x03, 0x5        	BANKSEL	_u8TifCounter
00095c   1303     bcf     0x03, 0x6        
00095d   01e1     clrf    0x61             	CLRF	_u8TifCounter
                                           _00158_DS_
00095e   0008     return                   	RETURN	
                                           ; exit point of _vidBlinkMode
                                           
                                           ;***
                                           ;  pBlock Stats: dbName = C
                                           ;***
                                           ;entry:  _TIF_vidSetMode	;Function start
                                           ; 2 exit points
                                           ;has an exit
                                           ;1 compiler assigned register :
                                           ;   r0x1005
                                           ;; Starting pCode block
                                           _TIF_vidSetMode	;Function start
                                           ; 2 exit points
                                           ;	.line	137; "tif_prg.c"	void TIF_vidSetMode(TIF_enuMode enuTifSetMode)
00095f   1683     bsf     0x03, 0x5        	BANKSEL	r0x1005
000960   1303     bcf     0x03, 0x6        
000961   00dd     movwf   0x5d             	MOVWF	r0x1005
                                           ;;unsigned compare: left < lit(0x3=3), size=1
                                           ;	.line	139; "tif_prg.c"	if((enuTifSetMode < TIF_UNDEFINED_MODE) &&
000962   3003     movlw   0x03             	MOVLW	0x03
000963   025d     subwf   0x5d, 0x0        	SUBWF	r0x1005,W
000964   1803     btfsc   0x03, 0x0        	BTFSC	STATUS,0
000965   2980     goto    0x0180           	GOTO	_00134_DS_
                                           ;;genSkipc:3247: created from rifx:00000000047558B0
                                           ;	.line	140; "tif_prg.c"	(enuTifSetMode != enuTiMode))
000966   1683     bsf     0x03, 0x5        	BANKSEL	_enuTiMode
000967   1303     bcf     0x03, 0x6        
000968   085f     movf    0x5f, 0x0        	MOVF	_enuTiMode,W
                                           ;	.line	142; "tif_prg.c"	enuTiOldMode = enuTiMode;
000969   1683     bsf     0x03, 0x5        	BANKSEL	r0x1005
00096a   1303     bcf     0x03, 0x6        
00096b   065d     xorwf   0x5d, 0x0        	XORWF	r0x1005,W
00096c   1903     btfsc   0x03, 0x2        	BTFSC	STATUS,2
00096d   2980     goto    0x0180           	GOTO	_00134_DS_
00096e   1683     bsf     0x03, 0x5        	BANKSEL	_enuTiMode
00096f   1303     bcf     0x03, 0x6        
000970   085f     movf    0x5f, 0x0        	MOVF	_enuTiMode,W
000971   1683     bsf     0x03, 0x5        	BANKSEL	_enuTiOldMode
000972   1303     bcf     0x03, 0x6        
000973   00e0     movwf   0x60             	MOVWF	_enuTiOldMode
                                           ;	.line	143; "tif_prg.c"	u8TifCounter = BTY_u8ZERO;
000974   1683     bsf     0x03, 0x5        	BANKSEL	_u8TifCounter
000975   1303     bcf     0x03, 0x6        
000976   01e1     clrf    0x61             	CLRF	_u8TifCounter
                                           ;	.line	144; "tif_prg.c"	enuTifBlinkState = BLINK_OFF;
000977   1683     bsf     0x03, 0x5        	BANKSEL	_enuTifBlinkState
000978   1303     bcf     0x03, 0x6        
000979   01e2     clrf    0x62             	CLRF	_enuTifBlinkState
                                           ;	.line	145; "tif_prg.c"	enuTiMode    = enuTifSetMode;
00097a   1683     bsf     0x03, 0x5        	BANKSEL	r0x1005
00097b   1303     bcf     0x03, 0x6        
00097c   085d     movf    0x5d, 0x0        	MOVF	r0x1005,W
00097d   1683     bsf     0x03, 0x5        	BANKSEL	_enuTiMode
00097e   1303     bcf     0x03, 0x6        
00097f   00df     movwf   0x5f             	MOVWF	_enuTiMode
                                           _00134_DS_
000980   0008     return                   	RETURN	
                                           ; exit point of _TIF_vidSetMode
                                           
                                           ;***
                                           ;  pBlock Stats: dbName = C
                                           ;***
                                           ;entry:  _TIF_vidTask	;Function start
                                           ; 2 exit points
                                           ;has an exit
                                           ;functions called:
                                           ;   _SSD_SetDisplayedNumber
                                           ;   _SSD_SetDisplayedNumber
                                           ;   _vidBlinkMode
                                           ;   _vidBlinkMode
                                           ;   _SSD_SetDisplayedNumber
                                           ;   _SSD_SetDisplayedNumber
                                           ;   _vidBlinkMode
                                           ;   _vidBlinkMode
                                           ;1 compiler assigned register :
                                           ;   STK00
                                           ;; Starting pCode block
                                           _TIF_vidTask	;Function start
                                           ; 2 exit points
                                           ;;swapping arguments (AOP_TYPEs 1/3)
                                           ;;unsigned compare: left >= lit(0x3=3), size=1
                                           ;	.line	102; "tif_prg.c"	switch(enuTiMode)
000981   3003     movlw   0x03             	MOVLW	0x03
000982   1683     bsf     0x03, 0x5        	BANKSEL	_enuTiMode
000983   1303     bcf     0x03, 0x6        
000984   025f     subwf   0x5f, 0x0        	SUBWF	_enuTiMode,W
000985   1803     btfsc   0x03, 0x0        	BTFSC	STATUS,0
000986   29bc     goto    0x01bc           	GOTO	_00116_DS_
                                           ;;genSkipc:3247: created from rifx:00000000047558B0
000987   3009     movlw   0x09             	MOVLW	HIGH(_00125_DS_)
000988   1283     bcf     0x03, 0x5        	BANKSEL	PCLATH
000989   1303     bcf     0x03, 0x6        
00098a   008a     movwf   0x0a             	MOVWF	PCLATH
00098b   3095     movlw   0x95             	MOVLW	_00125_DS_
00098c   1683     bsf     0x03, 0x5        	BANKSEL	_enuTiMode
00098d   1303     bcf     0x03, 0x6        
00098e   075f     addwf   0x5f, 0x0        	ADDWF	_enuTiMode,W
00098f   1c03     btfss   0x03, 0x0        	BTFSS	STATUS,0
000990   2994     goto    0x0194           	GOTO	_00001_DS_
000991   1283     bcf     0x03, 0x5        	BANKSEL	PCLATH
000992   1303     bcf     0x03, 0x6        
000993   0a8a     incf    0x0a, 0x1        	INCF	PCLATH,F
                                           _00001_DS_
000994   0082     movwf   0x02             	MOVWF	PCL
                                           _00125_DS_
000995   2998     goto    0x0198           	GOTO	_00109_DS_
000996   29b7     goto    0x01b7           	GOTO	_00112_DS_
000997   29ba     goto    0x01ba           	GOTO	_00113_DS_
                                           _00109_DS_
                                           ;	.line	107; "tif_prg.c"	if(enuTiMode != enuTiOldMode)
000998   1683     bsf     0x03, 0x5        	BANKSEL	_enuTiOldMode
000999   1303     bcf     0x03, 0x6        
00099a   0860     movf    0x60, 0x0        	MOVF	_enuTiOldMode,W
                                           ;	.line	109; "tif_prg.c"	SSD_SetDisplayedNumber(SSD_SEGMENT_LEFT, 18);
00099b   1683     bsf     0x03, 0x5        	BANKSEL	_enuTiMode
00099c   1303     bcf     0x03, 0x6        
00099d   065f     xorwf   0x5f, 0x0        	XORWF	_enuTiMode,W
00099e   1903     btfsc   0x03, 0x2        	BTFSC	STATUS,2
00099f   29bc     goto    0x01bc           	GOTO	_00116_DS_
0009a0   3012     movlw   0x12             	MOVLW	0x12
0009a1   00ff     movwf   0x7f             	MOVWF	STK00
0009a2   3001     movlw   0x01             	MOVLW	0x01
0009a3   158a     bsf     0x0a, 0x3        	PAGESEL	_SSD_SetDisplayedNumber
0009a4   120a     bcf     0x0a, 0x4        
0009a5   21ca     call    0x01ca           	CALL	_SSD_SetDisplayedNumber
0009a6   158a     bsf     0x0a, 0x3        	PAGESEL	$
0009a7   120a     bcf     0x0a, 0x4        
                                           ;	.line	110; "tif_prg.c"	SSD_SetDisplayedNumber(SSD_SEGMENT_RIGHT, 18);
0009a8   3012     movlw   0x12             	MOVLW	0x12
0009a9   00ff     movwf   0x7f             	MOVWF	STK00
0009aa   3000     movlw   0x00             	MOVLW	0x00
0009ab   158a     bsf     0x0a, 0x3        	PAGESEL	_SSD_SetDisplayedNumber
0009ac   120a     bcf     0x0a, 0x4        
0009ad   21ca     call    0x01ca           	CALL	_SSD_SetDisplayedNumber
0009ae   158a     bsf     0x0a, 0x3        	PAGESEL	$
0009af   120a     bcf     0x0a, 0x4        
                                           ;	.line	111; "tif_prg.c"	enuTiOldMode = enuTiMode;
0009b0   1683     bsf     0x03, 0x5        	BANKSEL	_enuTiMode
0009b1   1303     bcf     0x03, 0x6        
0009b2   085f     movf    0x5f, 0x0        	MOVF	_enuTiMode,W
0009b3   1683     bsf     0x03, 0x5        	BANKSEL	_enuTiOldMode
0009b4   1303     bcf     0x03, 0x6        
0009b5   00e0     movwf   0x60             	MOVWF	_enuTiOldMode
                                           ;	.line	117; "tif_prg.c"	break;
0009b6   29bc     goto    0x01bc           	GOTO	_00116_DS_
                                           _00112_DS_
                                           ;	.line	120; "tif_prg.c"	vidBlinkMode(TIF_RIGHT_BLINK_MODE);
0009b7   3001     movlw   0x01             	MOVLW	0x01
0009b8   2102     call    0x0102           	CALL	_vidBlinkMode
                                           ;	.line	121; "tif_prg.c"	break;
0009b9   29bc     goto    0x01bc           	GOTO	_00116_DS_
                                           _00113_DS_
                                           ;	.line	124; "tif_prg.c"	vidBlinkMode(TIF_LEFT_BLINK_MODE);
0009ba   3002     movlw   0x02             	MOVLW	0x02
0009bb   2102     call    0x0102           	CALL	_vidBlinkMode
                                           _00116_DS_
                                           ;	.line	129; "tif_prg.c"	}
0009bc   0008     return                   	RETURN	
                                           ; exit point of _TIF_vidTask
                                           
                                           ;***
                                           ;  pBlock Stats: dbName = C
                                           ;***
                                           ;entry:  _TIF_vidInit	;Function start
                                           ; 2 exit points
                                           ;has an exit
                                           ;; Starting pCode block
                                           _TIF_vidInit	;Function start
                                           ; 2 exit points
                                           ;	.line	89; "tif_prg.c"	enuTiMode        = TIF_OFF_MODE;
0009bd   1683     bsf     0x03, 0x5        	BANKSEL	_enuTiMode
0009be   1303     bcf     0x03, 0x6        
0009bf   01df     clrf    0x5f             	CLRF	_enuTiMode
                                           ;	.line	90; "tif_prg.c"	enuTiOldMode     = TIF_OFF_MODE;
0009c0   1683     bsf     0x03, 0x5        	BANKSEL	_enuTiOldMode
0009c1   1303     bcf     0x03, 0x6        
0009c2   01e0     clrf    0x60             	CLRF	_enuTiOldMode
                                           ;	.line	91; "tif_prg.c"	u8TifCounter     = BTY_u8ZERO;
0009c3   1683     bsf     0x03, 0x5        	BANKSEL	_u8TifCounter
0009c4   1303     bcf     0x03, 0x6        
0009c5   01e1     clrf    0x61             	CLRF	_u8TifCounter
                                           ;	.line	92; "tif_prg.c"	enuTifBlinkState = BLINK_OFF;
0009c6   1683     bsf     0x03, 0x5        	BANKSEL	_enuTifBlinkState
0009c7   1303     bcf     0x03, 0x6        
0009c8   01e2     clrf    0x62             	CLRF	_enuTifBlinkState
0009c9   0008     return                   	RETURN	
                                           ; exit point of _TIF_vidInit
                                           
                                           
                                           ;	code size estimation:
                                           ;	  106+   47 =   153 instructions (  400 byte)
                                           
                                           	end
